
loaderboot.elf:     file format elf32-littleriscv


Disassembly of section .text.entry:

00a20380 <_start>:
  a20380:	0040006f          	j	a20384 <Reset_Handler>

00a20384 <Reset_Handler>:
  a20384:	fffe6297          	auipc	t0,0xfffe6
  a20388:	71028293          	addi	t0,t0,1808 # a06a94 <g_uart_prag>
  a2038c:	00050313          	mv	t1,a0
  a20390:	00058393          	mv	t2,a1

00a20394 <set_arg_loop>:
  a20394:	00032e03          	lw	t3,0(t1)
  a20398:	01c2a023          	sw	t3,0(t0)
  a2039c:	00428293          	addi	t0,t0,4
  a203a0:	00430313          	addi	t1,t1,4
  a203a4:	ffc38393          	addi	t2,t2,-4
  a203a8:	fe7046e3          	bgtz	t2,a20394 <set_arg_loop>
  a203ac:	00006297          	auipc	t0,0x6
  a203b0:	bf028293          	addi	t0,t0,-1040 # a25f9c <trap_vector>
  a203b4:	00128293          	addi	t0,t0,1
  a203b8:	30529073          	csrw	mtvec,t0
  a203bc:	30005073          	csrwi	mstatus,0
  a203c0:	30405073          	csrwi	mie,0
  a203c4:	fffe3197          	auipc	gp,0xfffe3
  a203c8:	91818193          	addi	gp,gp,-1768 # a02cdc <_gp_>
  a203cc:	fffe2117          	auipc	sp,0xfffe2
  a203d0:	83410113          	addi	sp,sp,-1996 # a01c00 <__stack_top__>
  a203d4:	fffe0297          	auipc	t0,0xfffe0
  a203d8:	c2c28293          	addi	t0,t0,-980 # a00000 <g_system_stack_begin>
  a203dc:	fffe2317          	auipc	t1,0xfffe2
  a203e0:	02430313          	addi	t1,t1,36 # a02400 <g_efuse_clock_period>
  a203e4:	00628c63          	beq	t0,t1,a203fc <end_set_stack_loop>
  a203e8:	efbeb3b7          	lui	t2,0xefbeb
  a203ec:	dde38393          	addi	t2,t2,-546 # efbeadde <__data_load__+0xef1c350e>

00a203f0 <set_stack_loop>:
  a203f0:	0072a023          	sw	t2,0(t0)
  a203f4:	00428293          	addi	t0,t0,4
  a203f8:	fe62cce3          	blt	t0,t1,a203f0 <set_stack_loop>

00a203fc <end_set_stack_loop>:
  a203fc:	00000093          	li	ra,0
  a20400:	00000213          	li	tp,0
  a20404:	00000413          	li	s0,0
  a20408:	00000493          	li	s1,0
  a2040c:	00000513          	li	a0,0
  a20410:	00000593          	li	a1,0
  a20414:	00000613          	li	a2,0
  a20418:	00000693          	li	a3,0
  a2041c:	00000713          	li	a4,0
  a20420:	00000793          	li	a5,0
  a20424:	00000813          	li	a6,0
  a20428:	00000893          	li	a7,0
  a2042c:	00000913          	li	s2,0
  a20430:	00000993          	li	s3,0
  a20434:	00000a13          	li	s4,0
  a20438:	00000a93          	li	s5,0
  a2043c:	00000b13          	li	s6,0
  a20440:	00000b93          	li	s7,0
  a20444:	00000c13          	li	s8,0
  a20448:	00000c93          	li	s9,0
  a2044c:	00000d13          	li	s10,0
  a20450:	00000d93          	li	s11,0
  a20454:	00000e13          	li	t3,0
  a20458:	00000e93          	li	t4,0
  a2045c:	00000f13          	li	t5,0
  a20460:	00000f93          	li	t6,0
  a20464:	fffe2297          	auipc	t0,0xfffe2
  a20468:	f9c28293          	addi	t0,t0,-100 # a02400 <g_efuse_clock_period>
  a2046c:	00007317          	auipc	t1,0x7
  a20470:	46430313          	addi	t1,t1,1124 # a278d0 <__data_load__>
  a20474:	0dc00393          	li	t2,220
  a20478:	00038e63          	beqz	t2,a20494 <end_set_data_loop>

00a2047c <set_data_loop>:
  a2047c:	00032e03          	lw	t3,0(t1)
  a20480:	01c2a023          	sw	t3,0(t0)
  a20484:	00428293          	addi	t0,t0,4
  a20488:	00430313          	addi	t1,t1,4
  a2048c:	ffc38393          	addi	t2,t2,-4
  a20490:	fe7046e3          	bgtz	t2,a2047c <set_data_loop>

00a20494 <end_set_data_loop>:
  a20494:	fffe2297          	auipc	t0,0xfffe2
  a20498:	14428293          	addi	t0,t0,324 # a025d8 <g_flash_cmd_funcs>
  a2049c:	fffe6317          	auipc	t1,0xfffe6
  a204a0:	5f830313          	addi	t1,t1,1528 # a06a94 <g_uart_prag>
  a204a4:	00628a63          	beq	t0,t1,a204b8 <end_clear_bss_loop>
  a204a8:	00000393          	li	t2,0

00a204ac <clear_bss_loop>:
  a204ac:	0072a023          	sw	t2,0(t0)
  a204b0:	00428293          	addi	t0,t0,4
  a204b4:	fe62cce3          	blt	t0,t1,a204ac <clear_bss_loop>

00a204b8 <end_clear_bss_loop>:
  a204b8:	76a0106f          	j	a21c22 <start_loaderboot>

00a204bc <g_ram_exception_table>:
  a204bc:	00a25ea0 00a25236 00a25236 00a25236     .^..6R..6R..6R..
  a204cc:	00a25236 00a25236 00a25236 00a25236     6R..6R..6R..6R..
  a204dc:	00a25236 00a25236 00a25236 00a25236     6R..6R..6R..6R..
  a204ec:	00a2524a 00a25236 00a25236 00a25236     JR..6R..6R..6R..
  a204fc:	00a25236 00a25236 00a25236 00a25236     6R..6R..6R..6R..
  a2050c:	00a25236 00a25236 00a25236 00a25236     6R..6R..6R..6R..
  a2051c:	00a25236 00a25236 00a24e22 00a24e22     6R..6R.."N.."N..
  a2052c:	00a24e22 00a24e22 00a24e22 00a24e22     "N.."N.."N.."N..
  a2053c:	00a24e22 00a24e22 00a24e22 00a24e22     "N.."N.."N.."N..
  a2054c:	00a24e22 00a24e22 00a24e22 00a24e22     "N.."N.."N.."N..
  a2055c:	00a24e22 00a24e22 00a24e22 00a24e22     "N.."N.."N.."N..
  a2056c:	00a24e22 00a24e22 00a24e22 00a24e22     "N.."N.."N.."N..
  a2057c:	00a24e22 00a24e22 00a24e22 00a24e22     "N.."N.."N.."N..
  a2058c:	00a24e22 00a24e22 00a24e22 00a24e22     "N.."N.."N.."N..
  a2059c:	00a24e22 00a24e22 00a24e22 00a24e22     "N.."N.."N.."N..
  a205ac:	00a24e22 00a24e22 00a24e22 00a24e22     "N.."N.."N.."N..
  a205bc:	00a24e22 00a24e22 00a24e22 00a24e22     "N.."N.."N.."N..
  a205cc:	00a24e22 00a24e22 00a24e22 00a24e22     "N.."N.."N.."N..
  a205dc:	00a24e22 00a24e22                       "N.."N..

Disassembly of section .text:

00a205f0 <exc_syscall>:
  a205f0:	8082                	ret

00a205f2 <handle_syscall>:
  a205f2:	0411                	addi	s0,s0,4
  a205f4:	c022                	sw	s0,0(sp)
  a205f6:	3fed                	jal	ra,a205f0 <exc_syscall>
  a205f8:	42d2                	lw	t0,20(sp)
  a205fa:	34129073          	csrw	mepc,t0
  a205fe:	5d82                	lw	s11,32(sp)
  a20600:	5d12                	lw	s10,36(sp)
  a20602:	5ca2                	lw	s9,40(sp)
  a20604:	5c32                	lw	s8,44(sp)
  a20606:	5bc2                	lw	s7,48(sp)
  a20608:	5b52                	lw	s6,52(sp)
  a2060a:	5ae2                	lw	s5,56(sp)
  a2060c:	5a72                	lw	s4,60(sp)
  a2060e:	4986                	lw	s3,64(sp)
  a20610:	4916                	lw	s2,68(sp)
  a20612:	44a6                	lw	s1,72(sp)
  a20614:	4436                	lw	s0,76(sp)
  a20616:	4fc6                	lw	t6,80(sp)
  a20618:	4f56                	lw	t5,84(sp)
  a2061a:	4ee6                	lw	t4,88(sp)
  a2061c:	4e76                	lw	t3,92(sp)
  a2061e:	5886                	lw	a7,96(sp)
  a20620:	5816                	lw	a6,100(sp)
  a20622:	57a6                	lw	a5,104(sp)
  a20624:	5736                	lw	a4,108(sp)
  a20626:	56c6                	lw	a3,112(sp)
  a20628:	5656                	lw	a2,116(sp)
  a2062a:	55e6                	lw	a1,120(sp)
  a2062c:	5576                	lw	a0,124(sp)
  a2062e:	438a                	lw	t2,128(sp)
  a20630:	431a                	lw	t1,132(sp)
  a20632:	42aa                	lw	t0,136(sp)
  a20634:	40ba                	lw	ra,140(sp)
  a20636:	6149                	addi	sp,sp,144
  a20638:	30200073          	mret

00a2063c <__udivdi3>:
  a2063c:	4701                	li	a4,0
  a2063e:	a039                	j	a2064c <__udivmoddi4>

00a20640 <__umoddi3>:
  a20640:	8118                	push	{ra},-32
  a20642:	0038                	addi	a4,sp,8
  a20644:	2021                	jal	ra,a2064c <__udivmoddi4>
  a20646:	4522                	lw	a0,8(sp)
  a20648:	45b2                	lw	a1,12(sp)
  a2064a:	8114                	popret	{ra},32

00a2064c <__udivmoddi4>:
  a2064c:	88b6                	mv	a7,a3
  a2064e:	8832                	mv	a6,a2
  a20650:	87aa                	mv	a5,a0
  a20652:	8e2e                	mv	t3,a1
  a20654:	eedd                	bnez	a3,a20712 <__udivmoddi4+0xc6>
  a20656:	12c5f163          	bgeu	a1,a2,a20778 <__udivmoddi4+0x12c>
  a2065a:	66c1                	lui	a3,0x10
  a2065c:	1cd66a63          	bltu	a2,a3,a20830 <__udivmoddi4+0x1e4>
  a20660:	010006b7          	lui	a3,0x1000
  a20664:	3ad66563          	bltu	a2,a3,a20a0e <__udivmoddi4+0x3c2>
  a20668:	01865313          	srli	t1,a2,0x18
  a2066c:	48e1                	li	a7,24
  a2066e:	fffe2697          	auipc	a3,0xfffe2
  a20672:	e626a683          	lw	a3,-414(a3) # a024d0 <_GLOBAL_OFFSET_TABLE_+0x4>
  a20676:	969a                	add	a3,a3,t1
  a20678:	2294                	lbu	a3,0(a3)
  a2067a:	02000313          	li	t1,32
  a2067e:	98b6                	add	a7,a7,a3
  a20680:	41130333          	sub	t1,t1,a7
  a20684:	00030c63          	beqz	t1,a2069c <__udivmoddi4+0x50>
  a20688:	006595b3          	sll	a1,a1,t1
  a2068c:	011558b3          	srl	a7,a0,a7
  a20690:	00661833          	sll	a6,a2,t1
  a20694:	00b8ee33          	or	t3,a7,a1
  a20698:	006517b3          	sll	a5,a0,t1
  a2069c:	01085e93          	srli	t4,a6,0x10
  a206a0:	03de5f33          	divu	t5,t3,t4
  a206a4:	01081613          	slli	a2,a6,0x10
  a206a8:	8241                	srli	a2,a2,0x10
  a206aa:	0107d693          	srli	a3,a5,0x10
  a206ae:	03de75b3          	remu	a1,t3,t4
  a206b2:	03e60fb3          	mul	t6,a2,t5
  a206b6:	20b6a69b          	orshf	a3,a3,a1,sll,16
  a206ba:	01f6fa63          	bgeu	a3,t6,a206ce <__udivmoddi4+0x82>
  a206be:	96c2                	add	a3,a3,a6
  a206c0:	ffff0593          	addi	a1,t5,-1
  a206c4:	0106e463          	bltu	a3,a6,a206cc <__udivmoddi4+0x80>
  a206c8:	37f6e563          	bltu	a3,t6,a20a32 <__udivmoddi4+0x3e6>
  a206cc:	8f2e                	mv	t5,a1
  a206ce:	41f685b3          	sub	a1,a3,t6
  a206d2:	03d5d533          	divu	a0,a1,t4
  a206d6:	01079693          	slli	a3,a5,0x10
  a206da:	82c1                	srli	a3,a3,0x10
  a206dc:	03d5f5b3          	remu	a1,a1,t4
  a206e0:	02a60633          	mul	a2,a2,a0
  a206e4:	20b6a79b          	orshf	a5,a3,a1,sll,16
  a206e8:	00c7fa63          	bgeu	a5,a2,a206fc <__udivmoddi4+0xb0>
  a206ec:	97c2                	add	a5,a5,a6
  a206ee:	fff50693          	addi	a3,a0,-1
  a206f2:	0107e463          	bltu	a5,a6,a206fa <__udivmoddi4+0xae>
  a206f6:	32c7eb63          	bltu	a5,a2,a20a2c <__udivmoddi4+0x3e0>
  a206fa:	8536                	mv	a0,a3
  a206fc:	8f91                	sub	a5,a5,a2
  a206fe:	21e5251b          	orshf	a0,a0,t5,sll,16
  a20702:	4581                	li	a1,0
  a20704:	c711                	beqz	a4,a20710 <__udivmoddi4+0xc4>
  a20706:	0067d7b3          	srl	a5,a5,t1
  a2070a:	c31c                	sw	a5,0(a4)
  a2070c:	00072223          	sw	zero,4(a4)
  a20710:	8082                	ret
  a20712:	00d5f963          	bgeu	a1,a3,a20724 <__udivmoddi4+0xd8>
  a20716:	12070f63          	beqz	a4,a20854 <__udivmoddi4+0x208>
  a2071a:	c308                	sw	a0,0(a4)
  a2071c:	c34c                	sw	a1,4(a4)
  a2071e:	4501                	li	a0,0
  a20720:	4581                	li	a1,0
  a20722:	8082                	ret
  a20724:	67c1                	lui	a5,0x10
  a20726:	0ef6ed63          	bltu	a3,a5,a20820 <__udivmoddi4+0x1d4>
  a2072a:	010007b7          	lui	a5,0x1000
  a2072e:	2cf6ea63          	bltu	a3,a5,a20a02 <__udivmoddi4+0x3b6>
  a20732:	0186d893          	srli	a7,a3,0x18
  a20736:	4861                	li	a6,24
  a20738:	fffe2797          	auipc	a5,0xfffe2
  a2073c:	d987a783          	lw	a5,-616(a5) # a024d0 <_GLOBAL_OFFSET_TABLE_+0x4>
  a20740:	97c6                	add	a5,a5,a7
  a20742:	0007c303          	lbu	t1,0(a5)
  a20746:	02000e93          	li	t4,32
  a2074a:	9342                	add	t1,t1,a6
  a2074c:	406e8eb3          	sub	t4,t4,t1
  a20750:	180e9563          	bnez	t4,a208da <__udivmoddi4+0x28e>
  a20754:	00b6e463          	bltu	a3,a1,a2075c <__udivmoddi4+0x110>
  a20758:	2ec56363          	bltu	a0,a2,a20a3e <__udivmoddi4+0x3f2>
  a2075c:	40c50633          	sub	a2,a0,a2
  a20760:	00c53533          	sltu	a0,a0,a2
  a20764:	8d95                	sub	a1,a1,a3
  a20766:	40a58e33          	sub	t3,a1,a0
  a2076a:	4505                	li	a0,1
  a2076c:	4581                	li	a1,0
  a2076e:	d34d                	beqz	a4,a20710 <__udivmoddi4+0xc4>
  a20770:	c310                	sw	a2,0(a4)
  a20772:	01c72223          	sw	t3,4(a4)
  a20776:	8082                	ret
  a20778:	e601                	bnez	a2,a20780 <__udivmoddi4+0x134>
  a2077a:	4685                	li	a3,1
  a2077c:	02c6d833          	divu	a6,a3,a2
  a20780:	66c1                	lui	a3,0x10
  a20782:	0cd86063          	bltu	a6,a3,a20842 <__udivmoddi4+0x1f6>
  a20786:	010006b7          	lui	a3,0x1000
  a2078a:	26d86863          	bltu	a6,a3,a209fa <__udivmoddi4+0x3ae>
  a2078e:	01885613          	srli	a2,a6,0x18
  a20792:	48e1                	li	a7,24
  a20794:	fffe2697          	auipc	a3,0xfffe2
  a20798:	d3c6a683          	lw	a3,-708(a3) # a024d0 <_GLOBAL_OFFSET_TABLE_+0x4>
  a2079c:	96b2                	add	a3,a3,a2
  a2079e:	2290                	lbu	a2,0(a3)
  a207a0:	02000313          	li	t1,32
  a207a4:	9646                	add	a2,a2,a7
  a207a6:	40c30333          	sub	t1,t1,a2
  a207aa:	0a031863          	bnez	t1,a2085a <__udivmoddi4+0x20e>
  a207ae:	01081e93          	slli	t4,a6,0x10
  a207b2:	410586b3          	sub	a3,a1,a6
  a207b6:	01085f13          	srli	t5,a6,0x10
  a207ba:	010ede93          	srli	t4,t4,0x10
  a207be:	4585                	li	a1,1
  a207c0:	0107d893          	srli	a7,a5,0x10
  a207c4:	03e6de33          	divu	t3,a3,t5
  a207c8:	03e6f6b3          	remu	a3,a3,t5
  a207cc:	03de0633          	mul	a2,t3,t4
  a207d0:	20d8a69b          	orshf	a3,a7,a3,sll,16
  a207d4:	00c6fa63          	bgeu	a3,a2,a207e8 <__udivmoddi4+0x19c>
  a207d8:	96c2                	add	a3,a3,a6
  a207da:	fffe0513          	addi	a0,t3,-1
  a207de:	0106e463          	bltu	a3,a6,a207e6 <__udivmoddi4+0x19a>
  a207e2:	24c6eb63          	bltu	a3,a2,a20a38 <__udivmoddi4+0x3ec>
  a207e6:	8e2a                	mv	t3,a0
  a207e8:	40c68633          	sub	a2,a3,a2
  a207ec:	03e65533          	divu	a0,a2,t5
  a207f0:	01079693          	slli	a3,a5,0x10
  a207f4:	82c1                	srli	a3,a3,0x10
  a207f6:	03e67633          	remu	a2,a2,t5
  a207fa:	03d508b3          	mul	a7,a0,t4
  a207fe:	20c6a79b          	orshf	a5,a3,a2,sll,16
  a20802:	0117fa63          	bgeu	a5,a7,a20816 <__udivmoddi4+0x1ca>
  a20806:	97c2                	add	a5,a5,a6
  a20808:	fff50693          	addi	a3,a0,-1
  a2080c:	0107e463          	bltu	a5,a6,a20814 <__udivmoddi4+0x1c8>
  a20810:	2117eb63          	bltu	a5,a7,a20a26 <__udivmoddi4+0x3da>
  a20814:	8536                	mv	a0,a3
  a20816:	411787b3          	sub	a5,a5,a7
  a2081a:	21c5251b          	orshf	a0,a0,t3,sll,16
  a2081e:	b5dd                	j	a20704 <__udivmoddi4+0xb8>
  a20820:	0ff00793          	li	a5,255
  a20824:	1ed7f363          	bgeu	a5,a3,a20a0a <__udivmoddi4+0x3be>
  a20828:	0086d893          	srli	a7,a3,0x8
  a2082c:	4821                	li	a6,8
  a2082e:	b729                	j	a20738 <__udivmoddi4+0xec>
  a20830:	8332                	mv	t1,a2
  a20832:	0ff00693          	li	a3,255
  a20836:	e2c6fce3          	bgeu	a3,a2,a2066e <__udivmoddi4+0x22>
  a2083a:	00865313          	srli	t1,a2,0x8
  a2083e:	48a1                	li	a7,8
  a20840:	b53d                	j	a2066e <__udivmoddi4+0x22>
  a20842:	8642                	mv	a2,a6
  a20844:	0ff00693          	li	a3,255
  a20848:	f506f6e3          	bgeu	a3,a6,a20794 <__udivmoddi4+0x148>
  a2084c:	00885613          	srli	a2,a6,0x8
  a20850:	48a1                	li	a7,8
  a20852:	b789                	j	a20794 <__udivmoddi4+0x148>
  a20854:	4581                	li	a1,0
  a20856:	4501                	li	a0,0
  a20858:	8082                	ret
  a2085a:	00681833          	sll	a6,a6,t1
  a2085e:	00c5d8b3          	srl	a7,a1,a2
  a20862:	01085f13          	srli	t5,a6,0x10
  a20866:	03e8dfb3          	divu	t6,a7,t5
  a2086a:	01081e93          	slli	t4,a6,0x10
  a2086e:	006595b3          	sll	a1,a1,t1
  a20872:	00c55633          	srl	a2,a0,a2
  a20876:	010ede93          	srli	t4,t4,0x10
  a2087a:	8e4d                	or	a2,a2,a1
  a2087c:	01065e13          	srli	t3,a2,0x10
  a20880:	006517b3          	sll	a5,a0,t1
  a20884:	03e8f8b3          	remu	a7,a7,t5
  a20888:	03fe85b3          	mul	a1,t4,t6
  a2088c:	211e251b          	orshf	a0,t3,a7,sll,16
  a20890:	00b57b63          	bgeu	a0,a1,a208a6 <__udivmoddi4+0x25a>
  a20894:	9542                	add	a0,a0,a6
  a20896:	ffff8693          	addi	a3,t6,-1
  a2089a:	19056463          	bltu	a0,a6,a20a22 <__udivmoddi4+0x3d6>
  a2089e:	18b57263          	bgeu	a0,a1,a20a22 <__udivmoddi4+0x3d6>
  a208a2:	1ff9                	addi	t6,t6,-2
  a208a4:	9542                	add	a0,a0,a6
  a208a6:	8d0d                	sub	a0,a0,a1
  a208a8:	03e558b3          	divu	a7,a0,t5
  a208ac:	9e21                	uxth	a2
  a208ae:	03e57533          	remu	a0,a0,t5
  a208b2:	031e86b3          	mul	a3,t4,a7
  a208b6:	20a6259b          	orshf	a1,a2,a0,sll,16
  a208ba:	00d5fb63          	bgeu	a1,a3,a208d0 <__udivmoddi4+0x284>
  a208be:	95c2                	add	a1,a1,a6
  a208c0:	fff88613          	addi	a2,a7,-1
  a208c4:	1505eb63          	bltu	a1,a6,a20a1a <__udivmoddi4+0x3ce>
  a208c8:	14d5f963          	bgeu	a1,a3,a20a1a <__udivmoddi4+0x3ce>
  a208cc:	18f9                	addi	a7,a7,-2
  a208ce:	95c2                	add	a1,a1,a6
  a208d0:	40d586b3          	sub	a3,a1,a3
  a208d4:	21f8a59b          	orshf	a1,a7,t6,sll,16
  a208d8:	b5e5                	j	a207c0 <__udivmoddi4+0x174>
  a208da:	00665833          	srl	a6,a2,t1
  a208de:	01d696b3          	sll	a3,a3,t4
  a208e2:	00d866b3          	or	a3,a6,a3
  a208e6:	0065d7b3          	srl	a5,a1,t1
  a208ea:	0106de13          	srli	t3,a3,0x10
  a208ee:	03c7dfb3          	divu	t6,a5,t3
  a208f2:	01069893          	slli	a7,a3,0x10
  a208f6:	0108d893          	srli	a7,a7,0x10
  a208fa:	00655833          	srl	a6,a0,t1
  a208fe:	01d51f33          	sll	t5,a0,t4
  a20902:	01d595b3          	sll	a1,a1,t4
  a20906:	00b865b3          	or	a1,a6,a1
  a2090a:	0105d813          	srli	a6,a1,0x10
  a2090e:	01d61633          	sll	a2,a2,t4
  a20912:	03c7f7b3          	remu	a5,a5,t3
  a20916:	03f88533          	mul	a0,a7,t6
  a2091a:	20f8279b          	orshf	a5,a6,a5,sll,16
  a2091e:	00a7fb63          	bgeu	a5,a0,a20934 <__udivmoddi4+0x2e8>
  a20922:	97b6                	add	a5,a5,a3
  a20924:	ffff8813          	addi	a6,t6,-1
  a20928:	0ed7eb63          	bltu	a5,a3,a20a1e <__udivmoddi4+0x3d2>
  a2092c:	0ea7f963          	bgeu	a5,a0,a20a1e <__udivmoddi4+0x3d2>
  a20930:	1ff9                	addi	t6,t6,-2
  a20932:	97b6                	add	a5,a5,a3
  a20934:	8f89                	sub	a5,a5,a0
  a20936:	03c7d533          	divu	a0,a5,t3
  a2093a:	9da1                	uxth	a1
  a2093c:	03c7f7b3          	remu	a5,a5,t3
  a20940:	02a888b3          	mul	a7,a7,a0
  a20944:	20f5a59b          	orshf	a1,a1,a5,sll,16
  a20948:	0115fb63          	bgeu	a1,a7,a2095e <__udivmoddi4+0x312>
  a2094c:	95b6                	add	a1,a1,a3
  a2094e:	fff50793          	addi	a5,a0,-1
  a20952:	0cd5e263          	bltu	a1,a3,a20a16 <__udivmoddi4+0x3ca>
  a20956:	0d15f063          	bgeu	a1,a7,a20a16 <__udivmoddi4+0x3ca>
  a2095a:	1579                	addi	a0,a0,-2
  a2095c:	95b6                	add	a1,a1,a3
  a2095e:	63c1                	lui	t2,0x10
  a20960:	21f5251b          	orshf	a0,a0,t6,sll,16
  a20964:	fff38793          	addi	a5,t2,-1 # ffff <ccause+0xf03d>
  a20968:	00f57833          	and	a6,a0,a5
  a2096c:	01055e13          	srli	t3,a0,0x10
  a20970:	8ff1                	and	a5,a5,a2
  a20972:	01065f93          	srli	t6,a2,0x10
  a20976:	02fe02b3          	mul	t0,t3,a5
  a2097a:	411588b3          	sub	a7,a1,a7
  a2097e:	03f805b3          	mul	a1,a6,t6
  a20982:	02f80833          	mul	a6,a6,a5
  a20986:	9596                	add	a1,a1,t0
  a20988:	6105859b          	addshf	a1,a1,a6,srl,16
  a2098c:	03fe0e33          	mul	t3,t3,t6
  a20990:	0055f363          	bgeu	a1,t0,a20996 <__udivmoddi4+0x34a>
  a20994:	9e1e                	add	t3,t3,t2
  a20996:	67c1                	lui	a5,0x10
  a20998:	17fd                	addi	a5,a5,-1 # ffff <ccause+0xf03d>
  a2099a:	00f5ffb3          	and	t6,a1,a5
  a2099e:	00f877b3          	and	a5,a6,a5
  a209a2:	60be081b          	addshf	a6,t3,a1,srl,16
  a209a6:	21f7879b          	addshf	a5,a5,t6,sll,16
  a209aa:	0308ed63          	bltu	a7,a6,a209e4 <__udivmoddi4+0x398>
  a209ae:	03088963          	beq	a7,a6,a209e0 <__udivmoddi4+0x394>
  a209b2:	4581                	li	a1,0
  a209b4:	d4070ee3          	beqz	a4,a20710 <__udivmoddi4+0xc4>
  a209b8:	40ff07b3          	sub	a5,t5,a5
  a209bc:	00ff3f33          	sltu	t5,t5,a5
  a209c0:	410888b3          	sub	a7,a7,a6
  a209c4:	41e888b3          	sub	a7,a7,t5
  a209c8:	00689333          	sll	t1,a7,t1
  a209cc:	01d7d7b3          	srl	a5,a5,t4
  a209d0:	00f367b3          	or	a5,t1,a5
  a209d4:	01d8d8b3          	srl	a7,a7,t4
  a209d8:	c31c                	sw	a5,0(a4)
  a209da:	01172223          	sw	a7,4(a4)
  a209de:	8082                	ret
  a209e0:	fcff79e3          	bgeu	t5,a5,a209b2 <__udivmoddi4+0x366>
  a209e4:	40c78633          	sub	a2,a5,a2
  a209e8:	00c7b7b3          	sltu	a5,a5,a2
  a209ec:	40d80833          	sub	a6,a6,a3
  a209f0:	40f80833          	sub	a6,a6,a5
  a209f4:	157d                	addi	a0,a0,-1
  a209f6:	87b2                	mv	a5,a2
  a209f8:	bf6d                	j	a209b2 <__udivmoddi4+0x366>
  a209fa:	01085613          	srli	a2,a6,0x10
  a209fe:	48c1                	li	a7,16
  a20a00:	bb51                	j	a20794 <__udivmoddi4+0x148>
  a20a02:	0106d893          	srli	a7,a3,0x10
  a20a06:	4841                	li	a6,16
  a20a08:	bb05                	j	a20738 <__udivmoddi4+0xec>
  a20a0a:	4801                	li	a6,0
  a20a0c:	b335                	j	a20738 <__udivmoddi4+0xec>
  a20a0e:	01065313          	srli	t1,a2,0x10
  a20a12:	48c1                	li	a7,16
  a20a14:	b9a9                	j	a2066e <__udivmoddi4+0x22>
  a20a16:	853e                	mv	a0,a5
  a20a18:	b799                	j	a2095e <__udivmoddi4+0x312>
  a20a1a:	88b2                	mv	a7,a2
  a20a1c:	bd55                	j	a208d0 <__udivmoddi4+0x284>
  a20a1e:	8fc2                	mv	t6,a6
  a20a20:	bf11                	j	a20934 <__udivmoddi4+0x2e8>
  a20a22:	8fb6                	mv	t6,a3
  a20a24:	b549                	j	a208a6 <__udivmoddi4+0x25a>
  a20a26:	1579                	addi	a0,a0,-2
  a20a28:	97c2                	add	a5,a5,a6
  a20a2a:	b3f5                	j	a20816 <__udivmoddi4+0x1ca>
  a20a2c:	1579                	addi	a0,a0,-2
  a20a2e:	97c2                	add	a5,a5,a6
  a20a30:	b1f1                	j	a206fc <__udivmoddi4+0xb0>
  a20a32:	1f79                	addi	t5,t5,-2
  a20a34:	96c2                	add	a3,a3,a6
  a20a36:	b961                	j	a206ce <__udivmoddi4+0x82>
  a20a38:	1e79                	addi	t3,t3,-2
  a20a3a:	96c2                	add	a3,a3,a6
  a20a3c:	b375                	j	a207e8 <__udivmoddi4+0x19c>
  a20a3e:	862a                	mv	a2,a0
  a20a40:	4501                	li	a0,0
  a20a42:	b32d                	j	a2076c <__udivmoddi4+0x120>

00a20a44 <memset>:
  a20a44:	ca59                	beqz	a2,a20ada <memset+0x96>
  a20a46:	0ff5f793          	andi	a5,a1,255
  a20a4a:	a11c                	sb	a5,0(a0)
  a20a4c:	00c50733          	add	a4,a0,a2
  a20a50:	fef70fa3          	sb	a5,-1(a4)
  a20a54:	032661bb          	bltui	a2,3,a20ada <memset+0x96>
  a20a58:	b11c                	sb	a5,1(a0)
  a20a5a:	a13c                	sb	a5,2(a0)
  a20a5c:	fef70f23          	sb	a5,-2(a4)
  a20a60:	fef70ea3          	sb	a5,-3(a4)
  a20a64:	07166dbb          	bltui	a2,7,a20ada <memset+0x96>
  a20a68:	b13c                	sb	a5,3(a0)
  a20a6a:	fef70e23          	sb	a5,-4(a4)
  a20a6e:	46a1                	li	a3,8
  a20a70:	06c6f563          	bgeu	a3,a2,a20ada <memset+0x96>
  a20a74:	40a007b3          	neg	a5,a0
  a20a78:	8b8d                	andi	a5,a5,3
  a20a7a:	00f50733          	add	a4,a0,a5
  a20a7e:	8e1d                	sub	a2,a2,a5
  a20a80:	0ff5f593          	andi	a1,a1,255
  a20a84:	0101 0101 079f      	l.li	a5,0x1010101
  a20a8a:	02f585b3          	mul	a1,a1,a5
  a20a8e:	9a71                	andi	a2,a2,-4
  a20a90:	00c707b3          	add	a5,a4,a2
  a20a94:	c30c                	sw	a1,0(a4)
  a20a96:	feb7ae23          	sw	a1,-4(a5)
  a20a9a:	04c6f063          	bgeu	a3,a2,a20ada <memset+0x96>
  a20a9e:	c34c                	sw	a1,4(a4)
  a20aa0:	c70c                	sw	a1,8(a4)
  a20aa2:	feb7aa23          	sw	a1,-12(a5)
  a20aa6:	feb7ac23          	sw	a1,-8(a5)
  a20aaa:	19066c3b          	bltui	a2,25,a20ada <memset+0x96>
  a20aae:	c74c                	sw	a1,12(a4)
  a20ab0:	cb0c                	sw	a1,16(a4)
  a20ab2:	cb4c                	sw	a1,20(a4)
  a20ab4:	cf0c                	sw	a1,24(a4)
  a20ab6:	feb7a223          	sw	a1,-28(a5)
  a20aba:	feb7a423          	sw	a1,-24(a5)
  a20abe:	feb7a623          	sw	a1,-20(a5)
  a20ac2:	feb7a823          	sw	a1,-16(a5)
  a20ac6:	00477793          	andi	a5,a4,4
  a20aca:	07e1                	addi	a5,a5,24
  a20acc:	97ba                	add	a5,a5,a4
  a20ace:	46fd                	li	a3,31
  a20ad0:	9732                	add	a4,a4,a2
  a20ad2:	40f70633          	sub	a2,a4,a5
  a20ad6:	00c6e363          	bltu	a3,a2,a20adc <memset+0x98>
  a20ada:	8082                	ret
  a20adc:	c38c                	sw	a1,0(a5)
  a20ade:	c3cc                	sw	a1,4(a5)
  a20ae0:	c78c                	sw	a1,8(a5)
  a20ae2:	c7cc                	sw	a1,12(a5)
  a20ae4:	cb8c                	sw	a1,16(a5)
  a20ae6:	cbcc                	sw	a1,20(a5)
  a20ae8:	cf8c                	sw	a1,24(a5)
  a20aea:	cfcc                	sw	a1,28(a5)
  a20aec:	02078793          	addi	a5,a5,32
  a20af0:	b7cd                	j	a20ad2 <memset+0x8e>

00a20af2 <memcpy>:
  a20af2:	87aa                	mv	a5,a0
  a20af4:	0035f713          	andi	a4,a1,3
  a20af8:	c319                	beqz	a4,a20afe <memcpy+0xc>
  a20afa:	16061963          	bnez	a2,a20c6c <memcpy+0x17a>
  a20afe:	0037f813          	andi	a6,a5,3
  a20b02:	473d                	li	a4,15
  a20b04:	18080e63          	beqz	a6,a20ca0 <memcpy+0x1ae>
  a20b08:	20166abb          	bltui	a2,32,a20b72 <memcpy+0x80>
  a20b0c:	2194                	lbu	a3,0(a1)
  a20b0e:	4198                	lw	a4,0(a1)
  a20b10:	027807bb          	beqi	a6,2,a20cee <memcpy+0x1fc>
  a20b14:	488d                	li	a7,3
  a20b16:	23180563          	beq	a6,a7,a20d40 <memcpy+0x24e>
  a20b1a:	a394                	sb	a3,0(a5)
  a20b1c:	3194                	lbu	a3,1(a1)
  a20b1e:	1675                	addi	a2,a2,-3
  a20b20:	058d                	addi	a1,a1,3
  a20b22:	b394                	sb	a3,1(a5)
  a20b24:	fff5c683          	lbu	a3,-1(a1)
  a20b28:	078d                	addi	a5,a5,3
  a20b2a:	4e41                	li	t3,16
  a20b2c:	fed78fa3          	sb	a3,-1(a5)
  a20b30:	0015a303          	lw	t1,1(a1)
  a20b34:	0055a883          	lw	a7,5(a1)
  a20b38:	1641                	addi	a2,a2,-16
  a20b3a:	00831813          	slli	a6,t1,0x8
  a20b3e:	70e8271b          	orshf	a4,a6,a4,srl,24
  a20b42:	0095a803          	lw	a6,9(a1)
  a20b46:	c398                	sw	a4,0(a5)
  a20b48:	00889693          	slli	a3,a7,0x8
  a20b4c:	00881713          	slli	a4,a6,0x8
  a20b50:	7117271b          	orshf	a4,a4,a7,srl,24
  a20b54:	c798                	sw	a4,8(a5)
  a20b56:	00d5a703          	lw	a4,13(a1)
  a20b5a:	7066a69b          	orshf	a3,a3,t1,srl,24
  a20b5e:	c3d4                	sw	a3,4(a5)
  a20b60:	00871693          	slli	a3,a4,0x8
  a20b64:	7106a69b          	orshf	a3,a3,a6,srl,24
  a20b68:	c7d4                	sw	a3,12(a5)
  a20b6a:	05c1                	addi	a1,a1,16
  a20b6c:	07c1                	addi	a5,a5,16
  a20b6e:	fcce61e3          	bltu	t3,a2,a20b30 <memcpy+0x3e>
  a20b72:	01067713          	andi	a4,a2,16
  a20b76:	c351                	beqz	a4,a20bfa <memcpy+0x108>
  a20b78:	2198                	lbu	a4,0(a1)
  a20b7a:	07c1                	addi	a5,a5,16
  a20b7c:	05c1                	addi	a1,a1,16
  a20b7e:	fee78823          	sb	a4,-16(a5)
  a20b82:	ff15c703          	lbu	a4,-15(a1)
  a20b86:	fee788a3          	sb	a4,-15(a5)
  a20b8a:	ff25c703          	lbu	a4,-14(a1)
  a20b8e:	fee78923          	sb	a4,-14(a5)
  a20b92:	ff35c703          	lbu	a4,-13(a1)
  a20b96:	fee789a3          	sb	a4,-13(a5)
  a20b9a:	ff45c703          	lbu	a4,-12(a1)
  a20b9e:	fee78a23          	sb	a4,-12(a5)
  a20ba2:	ff55c703          	lbu	a4,-11(a1)
  a20ba6:	fee78aa3          	sb	a4,-11(a5)
  a20baa:	ff65c703          	lbu	a4,-10(a1)
  a20bae:	fee78b23          	sb	a4,-10(a5)
  a20bb2:	ff75c703          	lbu	a4,-9(a1)
  a20bb6:	fee78ba3          	sb	a4,-9(a5)
  a20bba:	ff85c703          	lbu	a4,-8(a1)
  a20bbe:	fee78c23          	sb	a4,-8(a5)
  a20bc2:	ff95c703          	lbu	a4,-7(a1)
  a20bc6:	fee78ca3          	sb	a4,-7(a5)
  a20bca:	ffa5c703          	lbu	a4,-6(a1)
  a20bce:	fee78d23          	sb	a4,-6(a5)
  a20bd2:	ffb5c703          	lbu	a4,-5(a1)
  a20bd6:	fee78da3          	sb	a4,-5(a5)
  a20bda:	ffc5c703          	lbu	a4,-4(a1)
  a20bde:	fee78e23          	sb	a4,-4(a5)
  a20be2:	ffd5c703          	lbu	a4,-3(a1)
  a20be6:	fee78ea3          	sb	a4,-3(a5)
  a20bea:	ffe5c703          	lbu	a4,-2(a1)
  a20bee:	fee78f23          	sb	a4,-2(a5)
  a20bf2:	fff5c703          	lbu	a4,-1(a1)
  a20bf6:	fee78fa3          	sb	a4,-1(a5)
  a20bfa:	00867713          	andi	a4,a2,8
  a20bfe:	c331                	beqz	a4,a20c42 <memcpy+0x150>
  a20c00:	2198                	lbu	a4,0(a1)
  a20c02:	07a1                	addi	a5,a5,8
  a20c04:	05a1                	addi	a1,a1,8
  a20c06:	fee78c23          	sb	a4,-8(a5)
  a20c0a:	ff95c703          	lbu	a4,-7(a1)
  a20c0e:	fee78ca3          	sb	a4,-7(a5)
  a20c12:	ffa5c703          	lbu	a4,-6(a1)
  a20c16:	fee78d23          	sb	a4,-6(a5)
  a20c1a:	ffb5c703          	lbu	a4,-5(a1)
  a20c1e:	fee78da3          	sb	a4,-5(a5)
  a20c22:	ffc5c703          	lbu	a4,-4(a1)
  a20c26:	fee78e23          	sb	a4,-4(a5)
  a20c2a:	ffd5c703          	lbu	a4,-3(a1)
  a20c2e:	fee78ea3          	sb	a4,-3(a5)
  a20c32:	ffe5c703          	lbu	a4,-2(a1)
  a20c36:	fee78f23          	sb	a4,-2(a5)
  a20c3a:	fff5c703          	lbu	a4,-1(a1)
  a20c3e:	fee78fa3          	sb	a4,-1(a5)
  a20c42:	00467713          	andi	a4,a2,4
  a20c46:	c359                	beqz	a4,a20ccc <memcpy+0x1da>
  a20c48:	2198                	lbu	a4,0(a1)
  a20c4a:	0791                	addi	a5,a5,4
  a20c4c:	0591                	addi	a1,a1,4
  a20c4e:	fee78e23          	sb	a4,-4(a5)
  a20c52:	ffd5c703          	lbu	a4,-3(a1)
  a20c56:	fee78ea3          	sb	a4,-3(a5)
  a20c5a:	ffe5c703          	lbu	a4,-2(a1)
  a20c5e:	fee78f23          	sb	a4,-2(a5)
  a20c62:	fff5c703          	lbu	a4,-1(a1)
  a20c66:	fee78fa3          	sb	a4,-1(a5)
  a20c6a:	a08d                	j	a20ccc <memcpy+0x1da>
  a20c6c:	0585                	addi	a1,a1,1
  a20c6e:	fff5c703          	lbu	a4,-1(a1)
  a20c72:	0785                	addi	a5,a5,1
  a20c74:	167d                	addi	a2,a2,-1
  a20c76:	fee78fa3          	sb	a4,-1(a5)
  a20c7a:	bdad                	j	a20af4 <memcpy+0x2>
  a20c7c:	4194                	lw	a3,0(a1)
  a20c7e:	07c1                	addi	a5,a5,16
  a20c80:	05c1                	addi	a1,a1,16
  a20c82:	fed7a823          	sw	a3,-16(a5)
  a20c86:	ff45a683          	lw	a3,-12(a1)
  a20c8a:	1641                	addi	a2,a2,-16
  a20c8c:	fed7aa23          	sw	a3,-12(a5)
  a20c90:	ff85a683          	lw	a3,-8(a1)
  a20c94:	fed7ac23          	sw	a3,-8(a5)
  a20c98:	ffc5a683          	lw	a3,-4(a1)
  a20c9c:	fed7ae23          	sw	a3,-4(a5)
  a20ca0:	fcc76ee3          	bltu	a4,a2,a20c7c <memcpy+0x18a>
  a20ca4:	00867713          	andi	a4,a2,8
  a20ca8:	cb11                	beqz	a4,a20cbc <memcpy+0x1ca>
  a20caa:	4198                	lw	a4,0(a1)
  a20cac:	07a1                	addi	a5,a5,8
  a20cae:	05a1                	addi	a1,a1,8
  a20cb0:	fee7ac23          	sw	a4,-8(a5)
  a20cb4:	ffc5a703          	lw	a4,-4(a1)
  a20cb8:	fee7ae23          	sw	a4,-4(a5)
  a20cbc:	00467713          	andi	a4,a2,4
  a20cc0:	c711                	beqz	a4,a20ccc <memcpy+0x1da>
  a20cc2:	4198                	lw	a4,0(a1)
  a20cc4:	0791                	addi	a5,a5,4
  a20cc6:	0591                	addi	a1,a1,4
  a20cc8:	fee7ae23          	sw	a4,-4(a5)
  a20ccc:	00267713          	andi	a4,a2,2
  a20cd0:	cb11                	beqz	a4,a20ce4 <memcpy+0x1f2>
  a20cd2:	2198                	lbu	a4,0(a1)
  a20cd4:	0789                	addi	a5,a5,2
  a20cd6:	0589                	addi	a1,a1,2
  a20cd8:	fee78f23          	sb	a4,-2(a5)
  a20cdc:	fff5c703          	lbu	a4,-1(a1)
  a20ce0:	fee78fa3          	sb	a4,-1(a5)
  a20ce4:	8a05                	andi	a2,a2,1
  a20ce6:	c219                	beqz	a2,a20cec <memcpy+0x1fa>
  a20ce8:	2198                	lbu	a4,0(a1)
  a20cea:	a398                	sb	a4,0(a5)
  a20cec:	8082                	ret
  a20cee:	a394                	sb	a3,0(a5)
  a20cf0:	3194                	lbu	a3,1(a1)
  a20cf2:	1679                	addi	a2,a2,-2
  a20cf4:	0589                	addi	a1,a1,2
  a20cf6:	b394                	sb	a3,1(a5)
  a20cf8:	4e45                	li	t3,17
  a20cfa:	0789                	addi	a5,a5,2
  a20cfc:	0025a303          	lw	t1,2(a1)
  a20d00:	0065a883          	lw	a7,6(a1)
  a20d04:	1641                	addi	a2,a2,-16
  a20d06:	01031813          	slli	a6,t1,0x10
  a20d0a:	60e8271b          	orshf	a4,a6,a4,srl,16
  a20d0e:	00a5a803          	lw	a6,10(a1)
  a20d12:	c398                	sw	a4,0(a5)
  a20d14:	01089693          	slli	a3,a7,0x10
  a20d18:	01081713          	slli	a4,a6,0x10
  a20d1c:	6117271b          	orshf	a4,a4,a7,srl,16
  a20d20:	c798                	sw	a4,8(a5)
  a20d22:	00e5a703          	lw	a4,14(a1)
  a20d26:	6066a69b          	orshf	a3,a3,t1,srl,16
  a20d2a:	c3d4                	sw	a3,4(a5)
  a20d2c:	01071693          	slli	a3,a4,0x10
  a20d30:	6106a69b          	orshf	a3,a3,a6,srl,16
  a20d34:	c7d4                	sw	a3,12(a5)
  a20d36:	05c1                	addi	a1,a1,16
  a20d38:	07c1                	addi	a5,a5,16
  a20d3a:	fcce61e3          	bltu	t3,a2,a20cfc <memcpy+0x20a>
  a20d3e:	bd15                	j	a20b72 <memcpy+0x80>
  a20d40:	a394                	sb	a3,0(a5)
  a20d42:	0585                	addi	a1,a1,1
  a20d44:	167d                	addi	a2,a2,-1
  a20d46:	0785                	addi	a5,a5,1
  a20d48:	4e49                	li	t3,18
  a20d4a:	0035a303          	lw	t1,3(a1)
  a20d4e:	0075a883          	lw	a7,7(a1)
  a20d52:	1641                	addi	a2,a2,-16
  a20d54:	01831813          	slli	a6,t1,0x18
  a20d58:	50e8271b          	orshf	a4,a6,a4,srl,8
  a20d5c:	00b5a803          	lw	a6,11(a1)
  a20d60:	c398                	sw	a4,0(a5)
  a20d62:	01889693          	slli	a3,a7,0x18
  a20d66:	01881713          	slli	a4,a6,0x18
  a20d6a:	5117271b          	orshf	a4,a4,a7,srl,8
  a20d6e:	c798                	sw	a4,8(a5)
  a20d70:	00f5a703          	lw	a4,15(a1)
  a20d74:	5066a69b          	orshf	a3,a3,t1,srl,8
  a20d78:	c3d4                	sw	a3,4(a5)
  a20d7a:	01871693          	slli	a3,a4,0x18
  a20d7e:	5106a69b          	orshf	a3,a3,a6,srl,8
  a20d82:	c7d4                	sw	a3,12(a5)
  a20d84:	05c1                	addi	a1,a1,16
  a20d86:	07c1                	addi	a5,a5,16
  a20d88:	fcce61e3          	bltu	t3,a2,a20d4a <memcpy+0x258>
  a20d8c:	b3dd                	j	a20b72 <memcpy+0x80>

00a20d8e <memcmp>:
  a20d8e:	962a                	add	a2,a2,a0
  a20d90:	00c50c63          	beq	a0,a2,a20da8 <memcmp+0x1a>
  a20d94:	211c                	lbu	a5,0(a0)
  a20d96:	2198                	lbu	a4,0(a1)
  a20d98:	00e78563          	beq	a5,a4,a20da2 <memcmp+0x14>
  a20d9c:	40e78533          	sub	a0,a5,a4
  a20da0:	8082                	ret
  a20da2:	0505                	addi	a0,a0,1
  a20da4:	0585                	addi	a1,a1,1
  a20da6:	b7ed                	j	a20d90 <memcmp+0x2>
  a20da8:	4501                	li	a0,0
  a20daa:	8082                	ret

00a20dac <strlen>:
  a20dac:	87aa                	mv	a5,a0
  a20dae:	0037f713          	andi	a4,a5,3
  a20db2:	e31d                	bnez	a4,a20dd8 <strlen+0x2c>
  a20db4:	fefe feff 059f      	l.li	a1,0xfefefeff
  a20dba:	8080 8080 061f      	l.li	a2,0x80808080
  a20dc0:	4394                	lw	a3,0(a5)
  a20dc2:	00b68733          	add	a4,a3,a1
  a20dc6:	fff6c693          	not	a3,a3
  a20dca:	8f75                	and	a4,a4,a3
  a20dcc:	8f71                	and	a4,a4,a2
  a20dce:	cf01                	beqz	a4,a20de6 <strlen+0x3a>
  a20dd0:	2398                	lbu	a4,0(a5)
  a20dd2:	c709                	beqz	a4,a20ddc <strlen+0x30>
  a20dd4:	0785                	addi	a5,a5,1
  a20dd6:	bfed                	j	a20dd0 <strlen+0x24>
  a20dd8:	2398                	lbu	a4,0(a5)
  a20dda:	e701                	bnez	a4,a20de2 <strlen+0x36>
  a20ddc:	40a78533          	sub	a0,a5,a0
  a20de0:	8082                	ret
  a20de2:	0785                	addi	a5,a5,1
  a20de4:	b7e9                	j	a20dae <strlen+0x2>
  a20de6:	0791                	addi	a5,a5,4
  a20de8:	bfe1                	j	a20dc0 <strlen+0x14>

00a20dea <reset>:
  a20dea:	8018                	push	{ra},-16
  a20dec:	619030ef          	jal	ra,a24c04 <update_reset_count>
  a20df0:	400027b7          	lui	a5,0x40002
  a20df4:	4711                	li	a4,4
  a20df6:	10e79823          	sh	a4,272(a5) # 40002110 <__data_load__+0x3f5da840>
  a20dfa:	a001                	j	a20dfa <reset+0x10>

00a20dfc <boot_get_flash_funcs>:
  a20dfc:	00a0 25d8 051f      	l.li	a0,0xa025d8
  a20e02:	8082                	ret

00a20e04 <boot_regist_flash_cmd>:
  a20e04:	8018                	push	{ra},-16
  a20e06:	862a                	mv	a2,a0
  a20e08:	46d1                	li	a3,20
  a20e0a:	45d1                	li	a1,20
  a20e0c:	00a0 25d8 051f      	l.li	a0,0xa025d8
  a20e12:	65c040ef          	jal	ra,a2546e <memcpy_s>
  a20e16:	c501                	beqz	a0,a20e1e <boot_regist_flash_cmd+0x1a>
  a20e18:	80000537          	lui	a0,0x80000
  a20e1c:	0511                	addi	a0,a0,4 # 80000004 <__data_load__+0x7f5d8734>
  a20e1e:	8014                	popret	{ra},16

00a20e20 <upload_send_file_info>:
  a20e20:	8058                	push	{ra,s0-s3},-32
  a20e22:	00a0 25ec 079f      	l.li	a5,0xa025ec
  a20e28:	4380                	lw	s0,0(a5)
  a20e2a:	283c                	lbu	a5,18(s0)
  a20e2c:	01340913          	addi	s2,s0,19
  a20e30:	8bbd                	andi	a5,a5,15
  a20e32:	c799                	beqz	a5,a20e40 <upload_send_file_info+0x20>
  a20e34:	08500593          	li	a1,133
  a20e38:	854a                	mv	a0,s2
  a20e3a:	8050                	pop	{ra,s0-s3},32
  a20e3c:	4030306f          	j	a24a3e <serial_put_buf>
  a20e40:	40500693          	li	a3,1029
  a20e44:	4601                	li	a2,0
  a20e46:	40500593          	li	a1,1029
  a20e4a:	854a                	mv	a0,s2
  a20e4c:	4044                	lw	s1,4(s0)
  a20e4e:	658040ef          	jal	ra,a254a6 <memset_s>
  a20e52:	4785                	li	a5,1
  a20e54:	b83c                	sb	a5,19(s0)
  a20e56:	381c                	lbu	a5,17(s0)
  a20e58:	4410                	lw	a2,8(s0)
  a20e5a:	01640993          	addi	s3,s0,22
  a20e5e:	a85c                	sb	a5,20(s0)
  a20e60:	fff7c793          	not	a5,a5
  a20e64:	b85c                	sb	a5,21(s0)
  a20e66:	46ad                	li	a3,11
  a20e68:	08000593          	li	a1,128
  a20e6c:	854e                	mv	a0,s3
  a20e6e:	600040ef          	jal	ra,a2546e <memcpy_s>
  a20e72:	e529                	bnez	a0,a20ebc <upload_send_file_info+0x9c>
  a20e74:	02140793          	addi	a5,s0,33
  a20e78:	8726                	mv	a4,s1
  a20e7a:	86be                	mv	a3,a5
  a20e7c:	863e                	mv	a2,a5
  a20e7e:	4529                	li	a0,10
  a20e80:	40f605b3          	sub	a1,a2,a5
  a20e84:	02e04d63          	bgtz	a4,a20ebe <upload_send_file_info+0x9e>
  a20e88:	00b78733          	add	a4,a5,a1
  a20e8c:	82b7879b          	addshf	a5,a5,a1,sra,1
  a20e90:	177d                	addi	a4,a4,-1
  a20e92:	04f69063          	bne	a3,a5,a20ed2 <upload_send_file_info+0xb2>
  a20e96:	08000613          	li	a2,128
  a20e9a:	85ce                	mv	a1,s3
  a20e9c:	4501                	li	a0,0
  a20e9e:	243000ef          	jal	ra,a218e0 <crc16_ccitt>
  a20ea2:	00855793          	srli	a5,a0,0x8
  a20ea6:	08f40b23          	sb	a5,150(s0)
  a20eaa:	08a40ba3          	sb	a0,151(s0)
  a20eae:	08500593          	li	a1,133
  a20eb2:	854a                	mv	a0,s2
  a20eb4:	38b030ef          	jal	ra,a24a3e <serial_put_buf>
  a20eb8:	4789                	li	a5,2
  a20eba:	a81c                	sb	a5,16(s0)
  a20ebc:	8054                	popret	{ra,s0-s3},32
  a20ebe:	02a765b3          	rem	a1,a4,a0
  a20ec2:	0605                	addi	a2,a2,1
  a20ec4:	03058593          	addi	a1,a1,48
  a20ec8:	feb60fa3          	sb	a1,-1(a2)
  a20ecc:	02a74733          	div	a4,a4,a0
  a20ed0:	bf45                	j	a20e80 <upload_send_file_info+0x60>
  a20ed2:	230c                	lbu	a1,0(a4)
  a20ed4:	2290                	lbu	a2,0(a3)
  a20ed6:	0685                	addi	a3,a3,1
  a20ed8:	feb68fa3          	sb	a1,-1(a3)
  a20edc:	a310                	sb	a2,0(a4)
  a20ede:	bf4d                	j	a20e90 <upload_send_file_info+0x70>

00a20ee0 <upload_send_data>:
  a20ee0:	8058                	push	{ra,s0-s3},-32
  a20ee2:	00a0 25ec 079f      	l.li	a5,0xa025ec
  a20ee8:	4380                	lw	s0,0(a5)
  a20eea:	283c                	lbu	a5,18(s0)
  a20eec:	01340913          	addi	s2,s0,19
  a20ef0:	8bbd                	andi	a5,a5,15
  a20ef2:	cf81                	beqz	a5,a20f0a <upload_send_data+0x2a>
  a20ef4:	383c                	lbu	a5,19(s0)
  a20ef6:	08500593          	li	a1,133
  a20efa:	0107823b          	beqi	a5,1,a20f02 <upload_send_data+0x22>
  a20efe:	40500593          	li	a1,1029
  a20f02:	854a                	mv	a0,s2
  a20f04:	8050                	pop	{ra,s0-s3},32
  a20f06:	3390306f          	j	a24a3e <serial_put_buf>
  a20f0a:	445c                	lw	a5,12(s0)
  a20f0c:	4044                	lw	s1,4(s0)
  a20f0e:	4669                	li	a2,26
  a20f10:	40500693          	li	a3,1029
  a20f14:	8c9d                	sub	s1,s1,a5
  a20f16:	4795                	li	a5,5
  a20f18:	a81c                	sb	a5,16(s0)
  a20f1a:	40500593          	li	a1,1029
  a20f1e:	854a                	mv	a0,s2
  a20f20:	586040ef          	jal	ra,a254a6 <memset_s>
  a20f24:	4789                	li	a5,2
  a20f26:	b83c                	sb	a5,19(s0)
  a20f28:	381c                	lbu	a5,17(s0)
  a20f2a:	01640993          	addi	s3,s0,22
  a20f2e:	4010                	lw	a2,0(s0)
  a20f30:	0785                	addi	a5,a5,1
  a20f32:	9f81                	uxtb	a5
  a20f34:	b81c                	sb	a5,17(s0)
  a20f36:	a85c                	sb	a5,20(s0)
  a20f38:	fff7c793          	not	a5,a5
  a20f3c:	b85c                	sb	a5,21(s0)
  a20f3e:	445c                	lw	a5,12(s0)
  a20f40:	8114f13b          	bgeui	s1,129,a20f84 <upload_send_data+0xa4>
  a20f44:	4705                	li	a4,1
  a20f46:	b838                	sb	a4,19(s0)
  a20f48:	86a6                	mv	a3,s1
  a20f4a:	963e                	add	a2,a2,a5
  a20f4c:	08000593          	li	a1,128
  a20f50:	854e                	mv	a0,s3
  a20f52:	51c040ef          	jal	ra,a2546e <memcpy_s>
  a20f56:	e52d                	bnez	a0,a20fc0 <upload_send_data+0xe0>
  a20f58:	85ce                	mv	a1,s3
  a20f5a:	08000613          	li	a2,128
  a20f5e:	183000ef          	jal	ra,a218e0 <crc16_ccitt>
  a20f62:	00855793          	srli	a5,a0,0x8
  a20f66:	08f40b23          	sb	a5,150(s0)
  a20f6a:	08a40ba3          	sb	a0,151(s0)
  a20f6e:	08500593          	li	a1,133
  a20f72:	854a                	mv	a0,s2
  a20f74:	2cb030ef          	jal	ra,a24a3e <serial_put_buf>
  a20f78:	445c                	lw	a5,12(s0)
  a20f7a:	94be                	add	s1,s1,a5
  a20f7c:	c444                	sw	s1,12(s0)
  a20f7e:	8050                	pop	{ra,s0-s3},32
  a20f80:	46d0306f          	j	a24bec <boot_wdt_kick>
  a20f84:	40000713          	li	a4,1024
  a20f88:	00977663          	bgeu	a4,s1,a20f94 <upload_send_data+0xb4>
  a20f8c:	4711                	li	a4,4
  a20f8e:	a818                	sb	a4,16(s0)
  a20f90:	40000493          	li	s1,1024
  a20f94:	86a6                	mv	a3,s1
  a20f96:	963e                	add	a2,a2,a5
  a20f98:	40000593          	li	a1,1024
  a20f9c:	854e                	mv	a0,s3
  a20f9e:	4d0040ef          	jal	ra,a2546e <memcpy_s>
  a20fa2:	ed19                	bnez	a0,a20fc0 <upload_send_data+0xe0>
  a20fa4:	85ce                	mv	a1,s3
  a20fa6:	40000613          	li	a2,1024
  a20faa:	137000ef          	jal	ra,a218e0 <crc16_ccitt>
  a20fae:	00855793          	srli	a5,a0,0x8
  a20fb2:	40f40b23          	sb	a5,1046(s0)
  a20fb6:	40a40ba3          	sb	a0,1047(s0)
  a20fba:	40500593          	li	a1,1029
  a20fbe:	bf55                	j	a20f72 <upload_send_data+0x92>
  a20fc0:	8054                	popret	{ra,s0-s3},32

00a20fc2 <upload_send_null_info>:
  a20fc2:	8038                	push	{ra,s0-s1},-16
  a20fc4:	00a0 25ec 079f      	l.li	a5,0xa025ec
  a20fca:	4380                	lw	s0,0(a5)
  a20fcc:	08000693          	li	a3,128
  a20fd0:	4601                	li	a2,0
  a20fd2:	01340493          	addi	s1,s0,19
  a20fd6:	40500593          	li	a1,1029
  a20fda:	8526                	mv	a0,s1
  a20fdc:	4ca040ef          	jal	ra,a254a6 <memset_s>
  a20fe0:	4785                	li	a5,1
  a20fe2:	b83c                	sb	a5,19(s0)
  a20fe4:	57fd                	li	a5,-1
  a20fe6:	b85c                	sb	a5,21(s0)
  a20fe8:	08000613          	li	a2,128
  a20fec:	01640593          	addi	a1,s0,22
  a20ff0:	00040a23          	sb	zero,20(s0)
  a20ff4:	4501                	li	a0,0
  a20ff6:	0eb000ef          	jal	ra,a218e0 <crc16_ccitt>
  a20ffa:	00855793          	srli	a5,a0,0x8
  a20ffe:	08f40b23          	sb	a5,150(s0)
  a21002:	08a40ba3          	sb	a0,151(s0)
  a21006:	08500593          	li	a1,133
  a2100a:	8526                	mv	a0,s1
  a2100c:	233030ef          	jal	ra,a24a3e <serial_put_buf>
  a21010:	479d                	li	a5,7
  a21012:	a81c                	sb	a5,16(s0)
  a21014:	8034                	popret	{ra,s0-s1},16

00a21016 <download_image>:
  a21016:	8058                	push	{ra,s0-s3},-32
  a21018:	842e                	mv	s0,a1
  a2101a:	84aa                	mv	s1,a0
  a2101c:	89b2                	mv	s3,a2
  a2101e:	3bf9                	jal	ra,a20dfc <boot_get_flash_funcs>
  a21020:	892a                	mv	s2,a0
  a21022:	3cb030ef          	jal	ra,a24bec <boot_wdt_kick>
  a21026:	ff1416bb          	bnei	s0,-1,a21080 <download_image+0x6a>
  a2102a:	5c5000ef          	jal	ra,a21dee <loader_download_is_flash_all_erased>
  a2102e:	cd11                	beqz	a0,a2104a <download_image+0x34>
  a21030:	00c92783          	lw	a5,12(s2)
  a21034:	85a2                	mv	a1,s0
  a21036:	8526                	mv	a0,s1
  a21038:	9782                	jalr	a5
  a2103a:	cd11                	beqz	a0,a21056 <download_image+0x40>
  a2103c:	0000 3622 051f      	l.li	a0,0x3622
  a21042:	2bd030ef          	jal	ra,a24afe <boot_put_errno>
  a21046:	557d                	li	a0,-1
  a21048:	8054                	popret	{ra,s0-s3},32
  a2104a:	00c92783          	lw	a5,12(s2)
  a2104e:	55fd                	li	a1,-1
  a21050:	9782                	jalr	a5
  a21052:	f56d                	bnez	a0,a2103c <download_image+0x26>
  a21054:	547d                	li	s0,-1
  a21056:	397030ef          	jal	ra,a24bec <boot_wdt_kick>
  a2105a:	00a2 67f0 051f      	l.li	a0,0xa267f0
  a21060:	2c9030ef          	jal	ra,a24b28 <boot_msg0>
  a21064:	05a00513          	li	a0,90
  a21068:	2cb1                	jal	ra,a212c4 <loader_ack>
  a2106a:	86ce                	mv	a3,s3
  a2106c:	4601                	li	a2,0
  a2106e:	85a2                	mv	a1,s0
  a21070:	8526                	mv	a0,s1
  a21072:	09f000ef          	jal	ra,a21910 <loader_serial_ymodem>
  a21076:	00a03533          	snez	a0,a0
  a2107a:	40a00533          	neg	a0,a0
  a2107e:	b7e9                	j	a21048 <download_image+0x32>
  a21080:	f845                	bnez	s0,a21030 <download_image+0x1a>
  a21082:	bfc9                	j	a21054 <download_image+0x3e>

00a21084 <download_factory_image>:
  a21084:	bf49                	j	a21016 <download_image>

00a21086 <upload_data>:
  a21086:	8198                	push	{ra,s0-s7},-64
  a21088:	00a02437          	lui	s0,0xa02
  a2108c:	5ec42783          	lw	a5,1516(s0) # a025ec <g_upload_ctx>
  a21090:	84aa                	mv	s1,a0
  a21092:	892e                	mv	s2,a1
  a21094:	5ec40413          	addi	s0,s0,1516
  a21098:	e791                	bnez	a5,a210a4 <upload_data+0x1e>
  a2109a:	41800513          	li	a0,1048
  a2109e:	3a5030ef          	jal	ra,a24c42 <boot_malloc>
  a210a2:	c008                	sw	a0,0(s0)
  a210a4:	4008                	lw	a0,0(s0)
  a210a6:	5bfd                	li	s7,-1
  a210a8:	c941                	beqz	a0,a21138 <upload_data+0xb2>
  a210aa:	41800693          	li	a3,1048
  a210ae:	4601                	li	a2,0
  a210b0:	41800593          	li	a1,1048
  a210b4:	3f2040ef          	jal	ra,a254a6 <memset_s>
  a210b8:	401c                	lw	a5,0(s0)
  a210ba:	00200737          	lui	a4,0x200
  a210be:	94ba                	add	s1,s1,a4
  a210c0:	c384                	sw	s1,0(a5)
  a210c2:	401c                	lw	a5,0(s0)
  a210c4:	00a2 6804 071f      	l.li	a4,0xa26804
  a210ca:	05a00513          	li	a0,90
  a210ce:	c798                	sw	a4,8(a5)
  a210d0:	4705                	li	a4,1
  a210d2:	0127a223          	sw	s2,4(a5)
  a210d6:	ab98                	sb	a4,16(a5)
  a210d8:	22f5                	jal	ra,a212c4 <loader_ack>
  a210da:	4000                	lw	s0,0(s0)
  a210dc:	0098 9680 049f      	l.li	s1,0x989680
  a210e2:	00a26937          	lui	s2,0xa26
  a210e6:	04300993          	li	s3,67
  a210ea:	7d890913          	addi	s2,s2,2008 # a267d8 <__clz_tab+0x100>
  a210ee:	8a26                	mv	s4,s1
  a210f0:	001e 8480 0a9f      	l.li	s5,0x1e8480
  a210f6:	00f10593          	addi	a1,sp,15
  a210fa:	8526                	mv	a0,s1
  a210fc:	1db030ef          	jal	ra,a24ad6 <serial_getc_timeout>
  a21100:	8baa                	mv	s7,a0
  a21102:	f975                	bnez	a0,a210f6 <upload_data+0x70>
  a21104:	00f14b03          	lbu	s6,15(sp)
  a21108:	013b1d63          	bne	s6,s3,a21122 <upload_data+0x9c>
  a2110c:	281c                	lbu	a5,16(s0)
  a2110e:	00040923          	sb	zero,18(s0)
  a21112:	03178dbb          	beqi	a5,3,a21188 <upload_data+0x102>
  a21116:	062780bb          	beqi	a5,6,a21198 <upload_data+0x112>
  a2111a:	01f7973b          	bnei	a5,1,a210f6 <upload_data+0x70>
  a2111e:	3309                	jal	ra,a20e20 <upload_send_file_info>
  a21120:	bfd9                	j	a210f6 <upload_data+0x70>
  a21122:	060b1ebb          	bnei	s6,6,a2115c <upload_data+0xd6>
  a21126:	281c                	lbu	a5,16(s0)
  a21128:	00040923          	sb	zero,18(s0)
  a2112c:	0707943b          	bnei	a5,7,a2113c <upload_data+0xb6>
  a21130:	06400513          	li	a0,100
  a21134:	0c3030ef          	jal	ra,a249f6 <mdelay>
  a21138:	855e                	mv	a0,s7
  a2113a:	8194                	popret	{ra,s0-s7},64
  a2113c:	0417833b          	beqi	a5,4,a21188 <upload_data+0x102>
  a21140:	0507843b          	beqi	a5,5,a21150 <upload_data+0xca>
  a21144:	02e79cbb          	bnei	a5,2,a210f6 <upload_data+0x70>
  a21148:	478d                	li	a5,3
  a2114a:	a81c                	sb	a5,16(s0)
  a2114c:	84d6                	mv	s1,s5
  a2114e:	b765                	j	a210f6 <upload_data+0x70>
  a21150:	4511                	li	a0,4
  a21152:	0a9030ef          	jal	ra,a249fa <serial_putc>
  a21156:	01640823          	sb	s6,16(s0)
  a2115a:	bf71                	j	a210f6 <upload_data+0x70>
  a2115c:	151b103b          	bnei	s6,21,a2119c <upload_data+0x116>
  a21160:	283c                	lbu	a5,18(s0)
  a21162:	8bbd                	andi	a5,a5,15
  a21164:	a83c                	sb	a5,18(s0)
  a21166:	283e                	lhu	a5,18(s0)
  a21168:	0785                	addi	a5,a5,1
  a2116a:	8bbd                	andi	a5,a5,15
  a2116c:	a83c                	sb	a5,18(s0)
  a2116e:	c7a9                	beqz	a5,a211b8 <upload_data+0x132>
  a21170:	281c                	lbu	a5,16(s0)
  a21172:	17f9                	addi	a5,a5,-2
  a21174:	9f81                	uxtb	a5
  a21176:	06e7f03b          	bgeui	a5,6,a210f6 <upload_data+0x70>
  a2117a:	04f9079b          	addshf	a5,s2,a5,sll,2
  a2117e:	439c                	lw	a5,0(a5)
  a21180:	8782                	jr	a5
  a21182:	3979                	jal	ra,a20e20 <upload_send_file_info>
  a21184:	84d2                	mv	s1,s4
  a21186:	bf85                	j	a210f6 <upload_data+0x70>
  a21188:	3ba1                	jal	ra,a20ee0 <upload_send_data>
  a2118a:	b7b5                	j	a210f6 <upload_data+0x70>
  a2118c:	4511                	li	a0,4
  a2118e:	06d030ef          	jal	ra,a249fa <serial_putc>
  a21192:	4799                	li	a5,6
  a21194:	a81c                	sb	a5,16(s0)
  a21196:	b785                	j	a210f6 <upload_data+0x70>
  a21198:	352d                	jal	ra,a20fc2 <upload_send_null_info>
  a2119a:	bfb1                	j	a210f6 <upload_data+0x70>
  a2119c:	18db16bb          	bnei	s6,24,a210f6 <upload_data+0x70>
  a211a0:	283c                	lbu	a5,18(s0)
  a211a2:	9bc1                	andi	a5,a5,-16
  a211a4:	a83c                	sb	a5,18(s0)
  a211a6:	481c                	lw	a5,16(s0)
  a211a8:	83d1                	srli	a5,a5,0x14
  a211aa:	0785                	addi	a5,a5,1
  a211ac:	8bbd                	andi	a5,a5,15
  a211ae:	00479713          	slli	a4,a5,0x4
  a211b2:	a838                	sb	a4,18(s0)
  a211b4:	03d790bb          	bnei	a5,3,a210f6 <upload_data+0x70>
  a211b8:	5bfd                	li	s7,-1
  a211ba:	bfbd                	j	a21138 <upload_data+0xb2>

00a211bc <loader_download_image>:
  a211bc:	8268                	push	{ra,s0-s4},-64
  a211be:	2d14                	lbu	a3,24(a0)
  a211c0:	01f10593          	addi	a1,sp,31
  a211c4:	892a                	mv	s2,a0
  a211c6:	c636                	sw	a3,12(sp)
  a211c8:	00c52a03          	lw	s4,12(a0)
  a211cc:	01052983          	lw	s3,16(a0)
  a211d0:	4944                	lw	s1,20(a0)
  a211d2:	00010fa3          	sb	zero,31(sp)
  a211d6:	423000ef          	jal	ra,a21df8 <loader_erase_all_process>
  a211da:	842a                	mv	s0,a0
  a211dc:	46b2                	lw	a3,12(sp)
  a211de:	c909                	beqz	a0,a211f0 <loader_download_image+0x34>
  a211e0:	85aa                	mv	a1,a0
  a211e2:	00a2 688c 051f      	l.li	a0,0xa2688c
  a211e8:	153030ef          	jal	ra,a24b3a <boot_msg1>
  a211ec:	8522                	mv	a0,s0
  a211ee:	8264                	popret	{ra,s0-s4},64
  a211f0:	01f14783          	lbu	a5,31(sp)
  a211f4:	dfe5                	beqz	a5,a211ec <loader_download_image+0x30>
  a211f6:	00098963          	beqz	s3,a21208 <loader_download_image+0x4c>
  a211fa:	c099                	beqz	s1,a21200 <loader_download_image+0x44>
  a211fc:	0134e663          	bltu	s1,s3,a21208 <loader_download_image+0x4c>
  a21200:	004007b7          	lui	a5,0x400
  a21204:	0537f963          	bgeu	a5,s3,a21256 <loader_download_image+0x9a>
  a21208:	00a2 68a0 051f      	l.li	a0,0xa268a0
  a2120e:	11b030ef          	jal	ra,a24b28 <boot_msg0>
  a21212:	00a2 68b0 051f      	l.li	a0,0xa268b0
  a21218:	003030ef          	jal	ra,a24a1a <serial_puts>
  a2121c:	4585                	li	a1,1
  a2121e:	8552                	mv	a0,s4
  a21220:	053030ef          	jal	ra,a24a72 <serial_puthex>
  a21224:	00a2 68c0 051f      	l.li	a0,0xa268c0
  a2122a:	7f0030ef          	jal	ra,a24a1a <serial_puts>
  a2122e:	4585                	li	a1,1
  a21230:	854e                	mv	a0,s3
  a21232:	041030ef          	jal	ra,a24a72 <serial_puthex>
  a21236:	00a2 68cc 051f      	l.li	a0,0xa268cc
  a2123c:	7de030ef          	jal	ra,a24a1a <serial_puts>
  a21240:	4585                	li	a1,1
  a21242:	8526                	mv	a0,s1
  a21244:	02f030ef          	jal	ra,a24a72 <serial_puthex>
  a21248:	00a2 72d4 051f      	l.li	a0,0xa272d4
  a2124e:	7cc030ef          	jal	ra,a24a1a <serial_puts>
  a21252:	547d                	li	s0,-1
  a21254:	bf61                	j	a211ec <loader_download_image+0x30>
  a21256:	00a94783          	lbu	a5,10(s2)
  a2125a:	00400637          	lui	a2,0x400
  a2125e:	85a6                	mv	a1,s1
  a21260:	8552                	mv	a0,s4
  a21262:	780792bb          	bnei	a5,120,a2126c <loader_download_image+0xb0>
  a21266:	3d39                	jal	ra,a21084 <download_factory_image>
  a21268:	842a                	mv	s0,a0
  a2126a:	b749                	j	a211ec <loader_download_image+0x30>
  a2126c:	336d                	jal	ra,a21016 <download_image>
  a2126e:	bfed                	j	a21268 <loader_download_image+0xac>

00a21270 <loader_upload_data>:
  a21270:	8018                	push	{ra},-16
  a21272:	454c                	lw	a1,12(a0)
  a21274:	004007b7          	lui	a5,0x400
  a21278:	fff58713          	addi	a4,a1,-1
  a2127c:	00f76963          	bltu	a4,a5,a2128e <loader_upload_data+0x1e>
  a21280:	00a2 68f0 051f      	l.li	a0,0xa268f0
  a21286:	0a3030ef          	jal	ra,a24b28 <boot_msg0>
  a2128a:	557d                	li	a0,-1
  a2128c:	8014                	popret	{ra},16
  a2128e:	4908                	lw	a0,16(a0)
  a21290:	00357713          	andi	a4,a0,3
  a21294:	c709                	beqz	a4,a2129e <loader_upload_data+0x2e>
  a21296:	00a2 6904 051f      	l.li	a0,0xa26904
  a2129c:	b7ed                	j	a21286 <loader_upload_data+0x16>
  a2129e:	00a58733          	add	a4,a1,a0
  a212a2:	00e7f663          	bgeu	a5,a4,a212ae <loader_upload_data+0x3e>
  a212a6:	00a2 6918 051f      	l.li	a0,0xa26918
  a212ac:	bfe9                	j	a21286 <loader_upload_data+0x16>
  a212ae:	8010                	pop	{ra},16
  a212b0:	bbd9                	j	a21086 <upload_data>

00a212b2 <loader_set_baudrate>:
  a212b2:	8018                	push	{ra},-16
  a212b4:	2e9000ef          	jal	ra,a21d9c <uart_baudrate_rcv>
  a212b8:	c501                	beqz	a0,a212c0 <loader_set_baudrate+0xe>
  a212ba:	8010                	pop	{ra},16
  a212bc:	2490006f          	j	a21d04 <serial_port_set_baudrate>
  a212c0:	557d                	li	a0,-1
  a212c2:	8014                	popret	{ra},16

00a212c4 <loader_ack>:
  a212c4:	9f28                	push	{ra,s0},-512
  a212c6:	de010113          	addi	sp,sp,-544
  a212ca:	842a                	mv	s0,a0
  a212cc:	41000613          	li	a2,1040
  a212d0:	4581                	li	a1,0
  a212d2:	850a                	mv	a0,sp
  a212d4:	f70ff0ef          	jal	ra,a20a44 <memset>
  a212d8:	dead beef 079f      	l.li	a5,0xdeadbeef
  a212de:	4629                	li	a2,10
  a212e0:	c23e                	sw	a5,4(sp)
  a212e2:	00810623          	sb	s0,12(sp)
  a212e6:	1ee1 000c 079f      	l.li	a5,0x1ee1000c
  a212ec:	fff44413          	not	s0,s0
  a212f0:	004c                	addi	a1,sp,4
  a212f2:	4501                	li	a0,0
  a212f4:	c43e                	sw	a5,8(sp)
  a212f6:	008106a3          	sb	s0,13(sp)
  a212fa:	23dd                	jal	ra,a218e0 <crc16_ccitt>
  a212fc:	00815583          	lhu	a1,8(sp)
  a21300:	40a11623          	sh	a0,1036(sp)
  a21304:	0048                	addi	a0,sp,4
  a21306:	15f9                	addi	a1,a1,-2
  a21308:	736030ef          	jal	ra,a24a3e <serial_put_buf>
  a2130c:	40c10513          	addi	a0,sp,1036
  a21310:	4589                	li	a1,2
  a21312:	72c030ef          	jal	ra,a24a3e <serial_put_buf>
  a21316:	41010113          	addi	sp,sp,1040
  a2131a:	8024                	popret	{ra,s0},16

00a2131c <loader_reset>:
  a2131c:	8018                	push	{ra},-16
  a2131e:	00a2 68dc 051f      	l.li	a0,0xa268dc
  a21324:	005030ef          	jal	ra,a24b28 <boot_msg0>
  a21328:	05a00513          	li	a0,90
  a2132c:	3f61                	jal	ra,a212c4 <loader_ack>
  a2132e:	4515                	li	a0,5
  a21330:	6c6030ef          	jal	ra,a249f6 <mdelay>
  a21334:	3c5d                	jal	ra,a20dea <reset>
  a21336:	4501                	li	a0,0
  a21338:	8014                	popret	{ra},16

00a2133a <cmd_loop>:
  a2133a:	8198                	push	{ra,s0-s7},-64
  a2133c:	842a                	mv	s0,a0
  a2133e:	001e 8480 099f      	l.li	s3,0x1e8480
  a21344:	dead beef 0a1f      	l.li	s4,0xdeadbeef
  a2134a:	00440913          	addi	s2,s0,4
  a2134e:	00040023          	sb	zero,0(s0)
  a21352:	00041123          	sh	zero,2(s0)
  a21356:	40c00693          	li	a3,1036
  a2135a:	4601                	li	a2,0
  a2135c:	40c00593          	li	a1,1036
  a21360:	854a                	mv	a0,s2
  a21362:	144040ef          	jal	ra,a254a6 <memset_s>
  a21366:	cd49                	beqz	a0,a21400 <cmd_loop+0xc6>
  a21368:	0a500513          	li	a0,165
  a2136c:	3fa1                	jal	ra,a212c4 <loader_ack>
  a2136e:	bff1                	j	a2134a <cmd_loop+0x10>
  a21370:	07d030ef          	jal	ra,a24bec <boot_wdt_kick>
  a21374:	00b10593          	addi	a1,sp,11
  a21378:	854e                	mv	a0,s3
  a2137a:	75c030ef          	jal	ra,a24ad6 <serial_getc_timeout>
  a2137e:	8b2a                	mv	s6,a0
  a21380:	ed05                	bnez	a0,a213b8 <cmd_loop+0x7e>
  a21382:	0a85                	addi	s5,s5,1
  a21384:	0ac2                	slli	s5,s5,0x10
  a21386:	010ada93          	srli	s5,s5,0x10
  a2138a:	c489                	beqz	s1,a21394 <cmd_loop+0x5a>
  a2138c:	00042223          	sw	zero,4(s0)
  a21390:	00040023          	sb	zero,0(s0)
  a21394:	201c                	lbu	a5,0(s0)
  a21396:	00b14703          	lbu	a4,11(sp)
  a2139a:	0407fdbb          	bgeui	a5,4,a213d0 <cmd_loop+0x96>
  a2139e:	0814                	addi	a3,sp,16
  a213a0:	c652                	sw	s4,12(sp)
  a213a2:	96be                	add	a3,a3,a5
  a213a4:	ffc6c683          	lbu	a3,-4(a3)
  a213a8:	00e69b63          	bne	a3,a4,a213be <cmd_loop+0x84>
  a213ac:	97ca                	add	a5,a5,s2
  a213ae:	a394                	sb	a3,0(a5)
  a213b0:	201c                	lbu	a5,0(s0)
  a213b2:	0785                	addi	a5,a5,1 # 400001 <g_intheap_size+0x3e6aa1>
  a213b4:	a01c                	sb	a5,0(s0)
  a213b6:	4481                	li	s1,0
  a213b8:	fb7a9ce3          	bne	s5,s7,a21370 <cmd_loop+0x36>
  a213bc:	b775                	j	a21368 <cmd_loop+0x2e>
  a213be:	0ef00793          	li	a5,239
  a213c2:	4485                	li	s1,1
  a213c4:	fef71ae3          	bne	a4,a5,a213b8 <cmd_loop+0x7e>
  a213c8:	57bd                	li	a5,-17
  a213ca:	a05c                	sb	a5,4(s0)
  a213cc:	a004                	sb	s1,0(s0)
  a213ce:	b7e5                	j	a213b6 <cmd_loop+0x7c>
  a213d0:	97ca                	add	a5,a5,s2
  a213d2:	a398                	sb	a4,0(a5)
  a213d4:	201c                	lbu	a5,0(s0)
  a213d6:	c791                	beqz	a5,a213e2 <cmd_loop+0xa8>
  a213d8:	2416                	lhu	a3,8(s0)
  a213da:	40000713          	li	a4,1024
  a213de:	00d76f63          	bltu	a4,a3,a213fc <cmd_loop+0xc2>
  a213e2:	0785                	addi	a5,a5,1
  a213e4:	9f81                	uxtb	a5
  a213e6:	a01c                	sb	a5,0(s0)
  a213e8:	08f7e3bb          	bltui	a5,8,a213b6 <cmd_loop+0x7c>
  a213ec:	00041123          	sh	zero,2(s0)
  a213f0:	00c40493          	addi	s1,s0,12
  a213f4:	0001 86a0 0a9f      	l.li	s5,0x186a0
  a213fa:	a02d                	j	a21424 <cmd_loop+0xea>
  a213fc:	4485                	li	s1,1
  a213fe:	bf6d                	j	a213b8 <cmd_loop+0x7e>
  a21400:	4a81                	li	s5,0
  a21402:	4481                	li	s1,0
  a21404:	06500b93          	li	s7,101
  a21408:	bf45                	j	a213b8 <cmd_loop+0x7e>
  a2140a:	006c                	addi	a1,sp,12
  a2140c:	8556                	mv	a0,s5
  a2140e:	6c8030ef          	jal	ra,a24ad6 <serial_getc_timeout>
  a21412:	f939                	bnez	a0,a21368 <cmd_loop+0x2e>
  a21414:	203e                	lhu	a5,2(s0)
  a21416:	00178713          	addi	a4,a5,1
  a2141a:	a03a                	sh	a4,2(s0)
  a2141c:	00c14703          	lbu	a4,12(sp)
  a21420:	97a6                	add	a5,a5,s1
  a21422:	a398                	sb	a4,0(a5)
  a21424:	241e                	lhu	a5,8(s0)
  a21426:	2036                	lhu	a3,2(s0)
  a21428:	ff878713          	addi	a4,a5,-8
  a2142c:	fce6efe3          	bltu	a3,a4,a2140a <cmd_loop+0xd0>
  a21430:	ff778713          	addi	a4,a5,-9
  a21434:	9726                	add	a4,a4,s1
  a21436:	97a6                	add	a5,a5,s1
  a21438:	2314                	lbu	a3,0(a4)
  a2143a:	ff67c783          	lbu	a5,-10(a5)
  a2143e:	10d7a79b          	orshf	a5,a5,a3,sll,8
  a21442:	40f41623          	sh	a5,1036(s0)
  a21446:	00070023          	sb	zero,0(a4) # 200000 <g_intheap_size+0x1e6aa0>
  a2144a:	241e                	lhu	a5,8(s0)
  a2144c:	94be                	add	s1,s1,a5
  a2144e:	fe048b23          	sb	zero,-10(s1)
  a21452:	2412                	lhu	a2,8(s0)
  a21454:	203a                	lhu	a4,2(s0)
  a21456:	ff860793          	addi	a5,a2,-8 # 3ffff8 <g_intheap_size+0x3e6a98>
  a2145a:	f0f717e3          	bne	a4,a5,a21368 <cmd_loop+0x2e>
  a2145e:	1679                	addi	a2,a2,-2
  a21460:	85ca                	mv	a1,s2
  a21462:	4501                	li	a0,0
  a21464:	29b5                	jal	ra,a218e0 <crc16_ccitt>
  a21466:	40c45783          	lhu	a5,1036(s0)
  a2146a:	eea79fe3          	bne	a5,a0,a21368 <cmd_loop+0x2e>
  a2146e:	242c                	lbu	a1,10(s0)
  a21470:	00a2 6854 079f      	l.li	a5,0xa26854
  a21476:	469d                	li	a3,7
  a21478:	2398                	lbu	a4,0(a5)
  a2147a:	02b71863          	bne	a4,a1,a214aa <cmd_loop+0x170>
  a2147e:	43d8                	lw	a4,4(a5)
  a21480:	c70d                	beqz	a4,a214aa <cmd_loop+0x170>
  a21482:	8522                	mv	a0,s0
  a21484:	9702                	jalr	a4
  a21486:	ee0511e3          	bnez	a0,a21368 <cmd_loop+0x2e>
  a2148a:	762030ef          	jal	ra,a24bec <boot_wdt_kick>
  a2148e:	05a00513          	li	a0,90
  a21492:	3d0d                	jal	ra,a212c4 <loader_ack>
  a21494:	00a2 6820 051f      	l.li	a0,0xa26820
  a2149a:	68e030ef          	jal	ra,a24b28 <boot_msg0>
  a2149e:	00a2 6838 051f      	l.li	a0,0xa26838
  a214a4:	684030ef          	jal	ra,a24b28 <boot_msg0>
  a214a8:	b54d                	j	a2134a <cmd_loop+0x10>
  a214aa:	0b05                	addi	s6,s6,1
  a214ac:	07a1                	addi	a5,a5,8
  a214ae:	fcdb15e3          	bne	s6,a3,a21478 <cmd_loop+0x13e>
  a214b2:	00a2 6810 051f      	l.li	a0,0xa26810
  a214b8:	682030ef          	jal	ra,a24b3a <boot_msg1>
  a214bc:	b575                	j	a21368 <cmd_loop+0x2e>

00a214be <ymodem_flush>:
  a214be:	8148                	push	{ra,s0-s2},-32
  a214c0:	597d                	li	s2,-1
  a214c2:	000f 4240 049f      	l.li	s1,0xf4240
  a214c8:	547d                	li	s0,-1
  a214ca:	00f10593          	addi	a1,sp,15
  a214ce:	8526                	mv	a0,s1
  a214d0:	012107a3          	sb	s2,15(sp)
  a214d4:	602030ef          	jal	ra,a24ad6 <serial_getc_timeout>
  a214d8:	fe8519e3          	bne	a0,s0,a214ca <ymodem_flush+0xc>
  a214dc:	8144                	popret	{ra,s0-s2},32

00a214de <ymodem_get_packet>:
  a214de:	81c8                	push	{ra,s0-s10},-64
  a214e0:	57fd                	li	a5,-1
  a214e2:	00a02437          	lui	s0,0xa02
  a214e6:	00f105a3          	sb	a5,11(sp)
  a214ea:	00f10623          	sb	a5,12(sp)
  a214ee:	00f106a3          	sb	a5,13(sp)
  a214f2:	00f10723          	sb	a5,14(sp)
  a214f6:	6709                	lui	a4,0x2
  a214f8:	5f040793          	addi	a5,s0,1520 # a025f0 <g_ymodem>
  a214fc:	97ba                	add	a5,a5,a4
  a214fe:	33dc                	lbu	a5,5(a5)
  a21500:	00a04937          	lui	s2,0xa04
  a21504:	5f040413          	addi	s0,s0,1520
  a21508:	5f090913          	addi	s2,s2,1520 # a045f0 <_gp_+0x1914>
  a2150c:	c791                	beqz	a5,a21518 <ymodem_get_packet+0x3a>
  a2150e:	4519                	li	a0,6
  a21510:	4ea030ef          	jal	ra,a249fa <serial_putc>
  a21514:	000902a3          	sb	zero,5(s2)
  a21518:	57fd                	li	a5,-1
  a2151a:	00f107a3          	sb	a5,15(sp)
  a2151e:	4981                	li	s3,0
  a21520:	4481                	li	s1,0
  a21522:	000f 4240 0b1f      	l.li	s6,0xf4240
  a21528:	4a29                	li	s4,10
  a2152a:	4ab1                	li	s5,12
  a2152c:	4be1                	li	s7,24
  a2152e:	4c0d                	li	s8,3
  a21530:	4c89                	li	s9,2
  a21532:	4d11                	li	s10,4
  a21534:	00f10593          	addi	a1,sp,15
  a21538:	855a                	mv	a0,s6
  a2153a:	59c030ef          	jal	ra,a24ad6 <serial_getc_timeout>
  a2153e:	c909                	beqz	a0,a21550 <ymodem_get_packet+0x72>
  a21540:	3fbd                	jal	ra,a214be <ymodem_flush>
  a21542:	4551                	li	a0,20
  a21544:	4b2030ef          	jal	ra,a249f6 <mdelay>
  a21548:	c35a 69a6 051f      	l.li	a0,0xc35a69a6
  a2154e:	a201                	j	a2164e <ymodem_get_packet+0x170>
  a21550:	00f14783          	lbu	a5,15(sp)
  a21554:	0485                	addi	s1,s1,1
  a21556:	0d478c63          	beq	a5,s4,a2162e <ymodem_get_packet+0x150>
  a2155a:	0afa6a63          	bltu	s4,a5,a2160e <ymodem_get_packet+0x130>
  a2155e:	0d978563          	beq	a5,s9,a21628 <ymodem_get_packet+0x14a>
  a21562:	0da78e63          	beq	a5,s10,a2163e <ymodem_get_packet+0x160>
  a21566:	01f793bb          	bnei	a5,1,a21534 <ymodem_get_packet+0x56>
  a2156a:	08000793          	li	a5,128
  a2156e:	000f44b7          	lui	s1,0xf4
  a21572:	00d10593          	addi	a1,sp,13
  a21576:	24048513          	addi	a0,s1,576 # f4240 <g_intheap_size+0xdace0>
  a2157a:	c01c                	sw	a5,0(s0)
  a2157c:	59fd                	li	s3,-1
  a2157e:	558030ef          	jal	ra,a24ad6 <serial_getc_timeout>
  a21582:	fd3503e3          	beq	a0,s3,a21548 <ymodem_get_packet+0x6a>
  a21586:	00e10593          	addi	a1,sp,14
  a2158a:	24048513          	addi	a0,s1,576
  a2158e:	548030ef          	jal	ra,a24ad6 <serial_getc_timeout>
  a21592:	fb350be3          	beq	a0,s3,a21548 <ymodem_get_packet+0x6a>
  a21596:	450d                	li	a0,3
  a21598:	45a030ef          	jal	ra,a249f2 <udelay>
  a2159c:	4981                	li	s3,0
  a2159e:	00440a13          	addi	s4,s0,4
  a215a2:	24048493          	addi	s1,s1,576
  a215a6:	5afd                	li	s5,-1
  a215a8:	401c                	lw	a5,0(s0)
  a215aa:	0af9e363          	bltu	s3,a5,a21650 <ymodem_get_packet+0x172>
  a215ae:	000f49b7          	lui	s3,0xf4
  a215b2:	006c                	addi	a1,sp,12
  a215b4:	24098513          	addi	a0,s3,576 # f4240 <g_intheap_size+0xdace0>
  a215b8:	51e030ef          	jal	ra,a24ad6 <serial_getc_timeout>
  a215bc:	54fd                	li	s1,-1
  a215be:	f89505e3          	beq	a0,s1,a21548 <ymodem_get_packet+0x6a>
  a215c2:	00b10593          	addi	a1,sp,11
  a215c6:	24098513          	addi	a0,s3,576
  a215ca:	50c030ef          	jal	ra,a24ad6 <serial_getc_timeout>
  a215ce:	f6950de3          	beq	a0,s1,a21548 <ymodem_get_packet+0x6a>
  a215d2:	00e14703          	lbu	a4,14(sp)
  a215d6:	00d14783          	lbu	a5,13(sp)
  a215da:	8fb9                	xor	a5,a5,a4
  a215dc:	0ff00713          	li	a4,255
  a215e0:	08e79163          	bne	a5,a4,a21662 <ymodem_get_packet+0x184>
  a215e4:	4010                	lw	a2,0(s0)
  a215e6:	00a025b7          	lui	a1,0xa02
  a215ea:	5f458593          	addi	a1,a1,1524 # a025f4 <g_ymodem+0x4>
  a215ee:	4501                	li	a0,0
  a215f0:	2cc5                	jal	ra,a218e0 <crc16_ccitt>
  a215f2:	00c14703          	lbu	a4,12(sp)
  a215f6:	00b14783          	lbu	a5,11(sp)
  a215fa:	10e7a79b          	orshf	a5,a5,a4,sll,8
  a215fe:	06a79663          	bne	a5,a0,a2166a <ymodem_get_packet+0x18c>
  a21602:	00d14783          	lbu	a5,13(sp)
  a21606:	4501                	li	a0,0
  a21608:	00f90323          	sb	a5,6(s2)
  a2160c:	a089                	j	a2164e <ymodem_get_packet+0x170>
  a2160e:	03578663          	beq	a5,s5,a2163a <ymodem_get_packet+0x15c>
  a21612:	0357e263          	bltu	a5,s5,a21636 <ymodem_get_packet+0x158>
  a21616:	f1779fe3          	bne	a5,s7,a21534 <ymodem_get_packet+0x56>
  a2161a:	0985                	addi	s3,s3,1
  a2161c:	f1899ce3          	bne	s3,s8,a21534 <ymodem_get_packet+0x56>
  a21620:	c35a 69a7 051f      	l.li	a0,0xc35a69a7
  a21626:	a025                	j	a2164e <ymodem_get_packet+0x170>
  a21628:	40000793          	li	a5,1024
  a2162c:	b789                	j	a2156e <ymodem_get_packet+0x90>
  a2162e:	0000 0800 079f      	l.li	a5,0x800
  a21634:	bf2d                	j	a2156e <ymodem_get_packet+0x90>
  a21636:	6785                	lui	a5,0x1
  a21638:	bf1d                	j	a2156e <ymodem_get_packet+0x90>
  a2163a:	6789                	lui	a5,0x2
  a2163c:	bf0d                	j	a2156e <ymodem_get_packet+0x90>
  a2163e:	01b49dbb          	bnei	s1,1,a21534 <ymodem_get_packet+0x56>
  a21642:	4519                	li	a0,6
  a21644:	3b6030ef          	jal	ra,a249fa <serial_putc>
  a21648:	c35a 69aa 051f      	l.li	a0,0xc35a69aa
  a2164e:	81c4                	popret	{ra,s0-s10},64
  a21650:	013a05b3          	add	a1,s4,s3
  a21654:	8526                	mv	a0,s1
  a21656:	480030ef          	jal	ra,a24ad6 <serial_getc_timeout>
  a2165a:	ff550ae3          	beq	a0,s5,a2164e <ymodem_get_packet+0x170>
  a2165e:	0985                	addi	s3,s3,1
  a21660:	b7a1                	j	a215a8 <ymodem_get_packet+0xca>
  a21662:	c35a 69a8 051f      	l.li	a0,0xc35a69a8
  a21668:	b7dd                	j	a2164e <ymodem_get_packet+0x170>
  a2166a:	c35a 69a9 051f      	l.li	a0,0xc35a69a9
  a21670:	bff9                	j	a2164e <ymodem_get_packet+0x170>

00a21672 <ymodem_open>:
  a21672:	8088                	push	{ra,s0-s6},-32
  a21674:	00a02937          	lui	s2,0xa02
  a21678:	5f090793          	addi	a5,s2,1520 # a025f0 <g_ymodem>
  a2167c:	6709                	lui	a4,0x2
  a2167e:	0007a023          	sw	zero,0(a5) # 2000 <ccause+0x103e>
  a21682:	04300513          	li	a0,67
  a21686:	97ba                	add	a5,a5,a4
  a21688:	0007a423          	sw	zero,8(a5)
  a2168c:	0007a623          	sw	zero,12(a5)
  a21690:	000782a3          	sb	zero,5(a5)
  a21694:	00078223          	sb	zero,4(a5)
  a21698:	362030ef          	jal	ra,a249fa <serial_putc>
  a2169c:	550030ef          	jal	ra,a24bec <boot_wdt_kick>
  a216a0:	c35a77b7          	lui	a5,0xc35a7
  a216a4:	00a04437          	lui	s0,0xa04
  a216a8:	4a51                	li	s4,20
  a216aa:	5f090913          	addi	s2,s2,1520
  a216ae:	5f040413          	addi	s0,s0,1520 # a045f0 <_gp_+0x1914>
  a216b2:	5afd                	li	s5,-1
  a216b4:	9a778b13          	addi	s6,a5,-1625 # c35a69a7 <__data_load__+0xc2b7f0d7>
  a216b8:	9a678993          	addi	s3,a5,-1626
  a216bc:	1a7d                	addi	s4,s4,-1
  a216be:	015a1563          	bne	s4,s5,a216c8 <ymodem_open+0x56>
  a216c2:	54fd                	li	s1,-1
  a216c4:	8526                	mv	a0,s1
  a216c6:	8084                	popret	{ra,s0-s6},32
  a216c8:	3d19                	jal	ra,a214de <ymodem_get_packet>
  a216ca:	84aa                	mv	s1,a0
  a216cc:	ed61                	bnez	a0,a217a4 <ymodem_open+0x132>
  a216ce:	207c                	lbu	a5,6(s0)
  a216d0:	ef9d                	bnez	a5,a2170e <ymodem_open+0x9c>
  a216d2:	450d                	li	a0,3
  a216d4:	31e030ef          	jal	ra,a249f2 <udelay>
  a216d8:	00a027b7          	lui	a5,0xa02
  a216dc:	5f478793          	addi	a5,a5,1524 # a025f4 <g_ymodem+0x4>
  a216e0:	08590693          	addi	a3,s2,133
  a216e4:	0785                	addi	a5,a5,1
  a216e6:	fff7c703          	lbu	a4,-1(a5)
  a216ea:	c319                	beqz	a4,a216f0 <ymodem_open+0x7e>
  a216ec:	fed79ce3          	bne	a5,a3,a216e4 <ymodem_open+0x72>
  a216f0:	08000613          	li	a2,128
  a216f4:	02000693          	li	a3,32
  a216f8:	a019                	j	a216fe <ymodem_open+0x8c>
  a216fa:	0785                	addi	a5,a5,1
  a216fc:	167d                	addi	a2,a2,-1
  a216fe:	2398                	lbu	a4,0(a5)
  a21700:	00d71c63          	bne	a4,a3,a21718 <ymodem_open+0xa6>
  a21704:	fa7d                	bnez	a2,a216fa <ymodem_open+0x88>
  a21706:	00042423          	sw	zero,8(s0)
  a2170a:	4785                	li	a5,1
  a2170c:	b05c                	sb	a5,5(s0)
  a2170e:	4785                	li	a5,1
  a21710:	b07c                	sb	a5,7(s0)
  a21712:	00092023          	sw	zero,0(s2)
  a21716:	b77d                	j	a216c4 <ymodem_open+0x52>
  a21718:	4829                	li	a6,10
  a2171a:	3007163b          	bnei	a4,48,a21732 <ymodem_open+0xc0>
  a2171e:	3398                	lbu	a4,1(a5)
  a21720:	0df77713          	andi	a4,a4,223
  a21724:	580713bb          	bnei	a4,88,a21732 <ymodem_open+0xc0>
  a21728:	020662bb          	bltui	a2,2,a21732 <ymodem_open+0xc0>
  a2172c:	0789                	addi	a5,a5,2
  a2172e:	1679                	addi	a2,a2,-2
  a21730:	4841                	li	a6,16
  a21732:	4581                	li	a1,0
  a21734:	4325                	li	t1,9
  a21736:	4895                	li	a7,5
  a21738:	a801                	j	a21748 <ymodem_open+0xd6>
  a2173a:	fd068713          	addi	a4,a3,-48
  a2173e:	00e86563          	bltu	a6,a4,a21748 <ymodem_open+0xd6>
  a21742:	02b805b3          	mul	a1,a6,a1
  a21746:	95ba                	add	a1,a1,a4
  a21748:	2398                	lbu	a4,0(a5)
  a2174a:	e705                	bnez	a4,a21772 <ymodem_open+0x100>
  a2174c:	c40c                	sw	a1,8(s0)
  a2174e:	010007b7          	lui	a5,0x1000
  a21752:	fab7fce3          	bgeu	a5,a1,a2170a <ymodem_open+0x98>
  a21756:	c35a 69ac 049f      	l.li	s1,0xc35a69ac
  a2175c:	b7a5                	j	a216c4 <ymodem_open+0x52>
  a2175e:	fbf70713          	addi	a4,a4,-65 # 1fbf <ccause+0xffd>
  a21762:	9f01                	uxtb	a4
  a21764:	00e8e563          	bltu	a7,a4,a2176e <ymodem_open+0xfc>
  a21768:	fc968713          	addi	a4,a3,-55
  a2176c:	bfc9                	j	a2173e <ymodem_open+0xcc>
  a2176e:	4701                	li	a4,0
  a21770:	bfc9                	j	a21742 <ymodem_open+0xd0>
  a21772:	de69                	beqz	a2,a2174c <ymodem_open+0xda>
  a21774:	fd070513          	addi	a0,a4,-48
  a21778:	01871693          	slli	a3,a4,0x18
  a2177c:	9d01                	uxtb	a0
  a2177e:	0785                	addi	a5,a5,1 # 1000001 <__data_load__+0x5d8731>
  a21780:	86e1                	srai	a3,a3,0x18
  a21782:	faa37ce3          	bgeu	t1,a0,a2173a <ymodem_open+0xc8>
  a21786:	fdf77513          	andi	a0,a4,-33
  a2178a:	fbf50513          	addi	a0,a0,-65
  a2178e:	9d01                	uxtb	a0
  a21790:	f2a8e9e3          	bltu	a7,a0,a216c2 <ymodem_open+0x50>
  a21794:	f9f70513          	addi	a0,a4,-97
  a21798:	9d01                	uxtb	a0
  a2179a:	fca8e2e3          	bltu	a7,a0,a2175e <ymodem_open+0xec>
  a2179e:	fa968713          	addi	a4,a3,-87
  a217a2:	bf71                	j	a2173e <ymodem_open+0xcc>
  a217a4:	f1650fe3          	beq	a0,s6,a216c2 <ymodem_open+0x50>
  a217a8:	f1351ae3          	bne	a0,s3,a216bc <ymodem_open+0x4a>
  a217ac:	440030ef          	jal	ra,a24bec <boot_wdt_kick>
  a217b0:	4551                	li	a0,20
  a217b2:	244030ef          	jal	ra,a249f6 <mdelay>
  a217b6:	04300513          	li	a0,67
  a217ba:	240030ef          	jal	ra,a249fa <serial_putc>
  a217be:	bdfd                	j	a216bc <ymodem_open+0x4a>

00a217c0 <ymodem_close>:
  a217c0:	8028                	push	{ra,s0},-16
  a217c2:	00a02437          	lui	s0,0xa02
  a217c6:	49444503          	lbu	a0,1172(s0) # a02494 <g_hiburn_uart>
  a217ca:	13a010ef          	jal	ra,a22904 <uapi_uart_rx_fifo_is_empty>
  a217ce:	e501                	bnez	a0,a217d6 <ymodem_close+0x16>
  a217d0:	288030ef          	jal	ra,a24a58 <serial_getc>
  a217d4:	bfcd                	j	a217c6 <ymodem_close+0x6>
  a217d6:	8024                	popret	{ra,s0},16

00a217d8 <ymodem_read>:
  a217d8:	80d8                	push	{ra,s0-s11},-64
  a217da:	c35a7bb7          	lui	s7,0xc35a7
  a217de:	00a0 25f0 091f      	l.li	s2,0xa025f0
  a217e4:	6b09                	lui	s6,0x2
  a217e6:	00a04437          	lui	s0,0xa04
  a217ea:	8aaa                	mv	s5,a0
  a217ec:	84ae                	mv	s1,a1
  a217ee:	4a01                	li	s4,0
  a217f0:	9b4a                	add	s6,s6,s2
  a217f2:	5f040413          	addi	s0,s0,1520 # a045f0 <_gp_+0x1914>
  a217f6:	9a7b8c93          	addi	s9,s7,-1625 # c35a69a7 <__data_load__+0xc2b7f0d7>
  a217fa:	9aab8d13          	addi	s10,s7,-1622
  a217fe:	004b4783          	lbu	a5,4(s6) # 2004 <ccause+0x1042>
  a21802:	ebdd                	bnez	a5,a218b8 <ymodem_read+0xe0>
  a21804:	c8d5                	beqz	s1,a218b8 <ymodem_read+0xe0>
  a21806:	00092783          	lw	a5,0(s2)
  a2180a:	ef9d                	bnez	a5,a21848 <ymodem_read+0x70>
  a2180c:	4c55                	li	s8,21
  a2180e:	59fd                	li	s3,-1
  a21810:	9abb8d93          	addi	s11,s7,-1621
  a21814:	a885                	j	a21884 <ymodem_read+0xac>
  a21816:	31e1                	jal	ra,a214de <ymodem_get_packet>
  a21818:	89aa                	mv	s3,a0
  a2181a:	e93d                	bnez	a0,a21890 <ymodem_read+0xb8>
  a2181c:	2078                	lbu	a4,6(s0)
  a2181e:	307c                	lbu	a5,7(s0)
  a21820:	04f71a63          	bne	a4,a5,a21874 <ymodem_read+0x9c>
  a21824:	4785                	li	a5,1
  a21826:	0705                	addi	a4,a4,1
  a21828:	b05c                	sb	a5,5(s0)
  a2182a:	b078                	sb	a4,7(s0)
  a2182c:	00092783          	lw	a5,0(s2)
  a21830:	4458                	lw	a4,12(s0)
  a21832:	4414                	lw	a3,8(s0)
  a21834:	973e                	add	a4,a4,a5
  a21836:	c458                	sw	a4,12(s0)
  a21838:	00e6f663          	bgeu	a3,a4,a21844 <ymodem_read+0x6c>
  a2183c:	97b6                	add	a5,a5,a3
  a2183e:	8f99                	sub	a5,a5,a4
  a21840:	00f92023          	sw	a5,0(s2)
  a21844:	205c                	lbu	a5,4(s0)
  a21846:	ffc5                	bnez	a5,a217fe <ymodem_read+0x26>
  a21848:	00092983          	lw	s3,0(s2)
  a2184c:	0134f363          	bgeu	s1,s3,a21852 <ymodem_read+0x7a>
  a21850:	89a6                	mv	s3,s1
  a21852:	00a02637          	lui	a2,0xa02
  a21856:	86ce                	mv	a3,s3
  a21858:	5f460613          	addi	a2,a2,1524 # a025f4 <g_ymodem+0x4>
  a2185c:	85a6                	mv	a1,s1
  a2185e:	8556                	mv	a0,s5
  a21860:	40f030ef          	jal	ra,a2546e <memcpy_s>
  a21864:	e52d                	bnez	a0,a218ce <ymodem_read+0xf6>
  a21866:	413484b3          	sub	s1,s1,s3
  a2186a:	9ace                	add	s5,s5,s3
  a2186c:	9a4e                	add	s4,s4,s3
  a2186e:	00092023          	sw	zero,0(s2)
  a21872:	b771                	j	a217fe <ymodem_read+0x26>
  a21874:	17fd                	addi	a5,a5,-1
  a21876:	0ff7f793          	andi	a5,a5,255
  a2187a:	04f71163          	bne	a4,a5,a218bc <ymodem_read+0xe4>
  a2187e:	4519                	li	a0,6
  a21880:	17a030ef          	jal	ra,a249fa <serial_putc>
  a21884:	1c7d                	addi	s8,s8,-1
  a21886:	f80c18e3          	bnez	s8,a21816 <ymodem_read+0x3e>
  a2188a:	fa098de3          	beqz	s3,a21844 <ymodem_read+0x6c>
  a2188e:	a02d                	j	a218b8 <ymodem_read+0xe0>
  a21890:	03950463          	beq	a0,s9,a218b8 <ymodem_read+0xe0>
  a21894:	03a51563          	bne	a0,s10,a218be <ymodem_read+0xe6>
  a21898:	4519                	li	a0,6
  a2189a:	160030ef          	jal	ra,a249fa <serial_putc>
  a2189e:	04300513          	li	a0,67
  a218a2:	158030ef          	jal	ra,a249fa <serial_putc>
  a218a6:	3925                	jal	ra,a214de <ymodem_get_packet>
  a218a8:	89aa                	mv	s3,a0
  a218aa:	4519                	li	a0,6
  a218ac:	14e030ef          	jal	ra,a249fa <serial_putc>
  a218b0:	4785                	li	a5,1
  a218b2:	a05c                	sb	a5,4(s0)
  a218b4:	f40985e3          	beqz	s3,a217fe <ymodem_read+0x26>
  a218b8:	8552                	mv	a0,s4
  a218ba:	80d4                	popret	{ra,s0-s11},64
  a218bc:	89ee                	mv	s3,s11
  a218be:	3101                	jal	ra,a214be <ymodem_flush>
  a218c0:	04300513          	li	a0,67
  a218c4:	136030ef          	jal	ra,a249fa <serial_putc>
  a218c8:	324030ef          	jal	ra,a24bec <boot_wdt_kick>
  a218cc:	bf65                	j	a21884 <ymodem_read+0xac>
  a218ce:	5a7d                	li	s4,-1
  a218d0:	b7e5                	j	a218b8 <ymodem_read+0xe0>

00a218d2 <ymodem_get_length>:
  a218d2:	6709                	lui	a4,0x2
  a218d4:	00a0 25f0 079f      	l.li	a5,0xa025f0
  a218da:	97ba                	add	a5,a5,a4
  a218dc:	4788                	lw	a0,8(a5)
  a218de:	8082                	ret

00a218e0 <crc16_ccitt>:
  a218e0:	4781                	li	a5,0
  a218e2:	c989                	beqz	a1,a218f4 <crc16_ccitt+0x14>
  a218e4:	ca01                	beqz	a2,a218f4 <crc16_ccitt+0x14>
  a218e6:	962e                	add	a2,a2,a1
  a218e8:	87aa                	mv	a5,a0
  a218ea:	00a2 693c 069f      	l.li	a3,0xa2693c
  a218f0:	00c59463          	bne	a1,a2,a218f8 <crc16_ccitt+0x18>
  a218f4:	853e                	mv	a0,a5
  a218f6:	8082                	ret
  a218f8:	0585                	addi	a1,a1,1
  a218fa:	fff5c703          	lbu	a4,-1(a1)
  a218fe:	50f7371b          	xorshf	a4,a4,a5,srl,8
  a21902:	02e6871b          	addshf	a4,a3,a4,sll,1
  a21906:	230a                	lhu	a0,0(a4)
  a21908:	10f5379b          	xorshf	a5,a0,a5,sll,8
  a2190c:	9fa1                	uxth	a5
  a2190e:	b7cd                	j	a218f0 <crc16_ccitt+0x10>

00a21910 <loader_serial_ymodem>:
  a21910:	8098                	push	{ra,s0-s7},-48
  a21912:	8aaa                	mv	s5,a0
  a21914:	892e                	mv	s2,a1
  a21916:	8a32                	mv	s4,a2
  a21918:	8436                	mv	s0,a3
  a2191a:	3ba1                	jal	ra,a21672 <ymodem_open>
  a2191c:	e90d                	bnez	a0,a2194e <loader_serial_ymodem+0x3e>
  a2191e:	89aa                	mv	s3,a0
  a21920:	3f4d                	jal	ra,a218d2 <ymodem_get_length>
  a21922:	84aa                	mv	s1,a0
  a21924:	00aa7463          	bgeu	s4,a0,a2192c <loader_serial_ymodem+0x1c>
  a21928:	00a47963          	bgeu	s0,a0,a2193a <loader_serial_ymodem+0x2a>
  a2192c:	85a6                	mv	a1,s1
  a2192e:	00a2 6b3c 051f      	l.li	a0,0xa26b3c
  a21934:	206030ef          	jal	ra,a24b3a <boot_msg1>
  a21938:	a819                	j	a2194e <loader_serial_ymodem+0x3e>
  a2193a:	842a                	mv	s0,a0
  a2193c:	06090d63          	beqz	s2,a219b6 <loader_serial_ymodem+0xa6>
  a21940:	06a97b63          	bgeu	s2,a0,a219b6 <loader_serial_ymodem+0xa6>
  a21944:	00a2 6b50 051f      	l.li	a0,0xa26b50
  a2194a:	1de030ef          	jal	ra,a24b28 <boot_msg0>
  a2194e:	3d8d                	jal	ra,a217c0 <ymodem_close>
  a21950:	547d                	li	s0,-1
  a21952:	a085                	j	a219b2 <loader_serial_ymodem+0xa2>
  a21954:	85a2                	mv	a1,s0
  a21956:	008b7363          	bgeu	s6,s0,a2195c <loader_serial_ymodem+0x4c>
  a2195a:	6589                	lui	a1,0x2
  a2195c:	600a0513          	addi	a0,s4,1536
  a21960:	3da5                	jal	ra,a217d8 <ymodem_read>
  a21962:	892a                	mv	s2,a0
  a21964:	d56d                	beqz	a0,a2194e <loader_serial_ymodem+0x3e>
  a21966:	fea464e3          	bltu	s0,a0,a2194e <loader_serial_ymodem+0x3e>
  a2196a:	c92ff0ef          	jal	ra,a20dfc <boot_get_flash_funcs>
  a2196e:	451c                	lw	a5,8(a0)
  a21970:	85ca                	mv	a1,s2
  a21972:	4681                	li	a3,0
  a21974:	600a0613          	addi	a2,s4,1536
  a21978:	017a8533          	add	a0,s5,s7
  a2197c:	9782                	jalr	a5
  a2197e:	85aa                	mv	a1,a0
  a21980:	c509                	beqz	a0,a2198a <loader_serial_ymodem+0x7a>
  a21982:	00a2 6b68 051f      	l.li	a0,0xa26b68
  a21988:	b775                	j	a21934 <loader_serial_ymodem+0x24>
  a2198a:	41240433          	sub	s0,s0,s2
  a2198e:	99ca                	add	s3,s3,s2
  a21990:	9aca                	add	s5,s5,s2
  a21992:	25a030ef          	jal	ra,a24bec <boot_wdt_kick>
  a21996:	fc5d                	bnez	s0,a21954 <loader_serial_ymodem+0x44>
  a21998:	6589                	lui	a1,0x2
  a2199a:	600a0513          	addi	a0,s4,1536
  a2199e:	3d2d                	jal	ra,a217d8 <ymodem_read>
  a219a0:	fb3497e3          	bne	s1,s3,a2194e <loader_serial_ymodem+0x3e>
  a219a4:	85a6                	mv	a1,s1
  a219a6:	00a2 6b7c 051f      	l.li	a0,0xa26b7c
  a219ac:	18e030ef          	jal	ra,a24b3a <boot_msg1>
  a219b0:	3d01                	jal	ra,a217c0 <ymodem_close>
  a219b2:	8522                	mv	a0,s0
  a219b4:	8094                	popret	{ra,s0-s7},48
  a219b6:	00a04a37          	lui	s4,0xa04
  a219ba:	6b09                	lui	s6,0x2
  a219bc:	ffe00bb7          	lui	s7,0xffe00
  a219c0:	bfd9                	j	a21996 <loader_serial_ymodem+0x86>

00a219c2 <loader_burn_efuse>:
  a219c2:	83d8                	push	{ra,s0-s11},-112
  a219c4:	4540                	lw	s0,12(a0)
  a219c6:	4f700793          	li	a5,1271
  a219ca:	fcf40713          	addi	a4,s0,-49
  a219ce:	00e7fa63          	bgeu	a5,a4,a219e2 <loader_burn_efuse+0x20>
  a219d2:	85a2                	mv	a1,s0
  a219d4:	00a2 6b88 051f      	l.li	a0,0xa26b88
  a219da:	160030ef          	jal	ra,a24b3a <boot_msg1>
  a219de:	5bfd                	li	s7,-1
  a219e0:	a02d                	j	a21a0a <loader_burn_efuse+0x48>
  a219e2:	05a00513          	li	a0,90
  a219e6:	8dfff0ef          	jal	ra,a212c4 <loader_ack>
  a219ea:	52800693          	li	a3,1320
  a219ee:	03000613          	li	a2,48
  a219f2:	4581                	li	a1,0
  a219f4:	00a30537          	lui	a0,0xa30
  a219f8:	3f21                	jal	ra,a21910 <loader_serial_ymodem>
  a219fa:	8baa                	mv	s7,a0
  a219fc:	c909                	beqz	a0,a21a0e <loader_burn_efuse+0x4c>
  a219fe:	85aa                	mv	a1,a0
  a21a00:	00a2 6ba0 051f      	l.li	a0,0xa26ba0
  a21a06:	134030ef          	jal	ra,a24b3a <boot_msg1>
  a21a0a:	855e                	mv	a0,s7
  a21a0c:	83d4                	popret	{ra,s0-s11},112
  a21a0e:	4581                	li	a1,0
  a21a10:	02000613          	li	a2,32
  a21a14:	0808                	addi	a0,sp,16
  a21a16:	82eff0ef          	jal	ra,a20a44 <memset>
  a21a1a:	093000ef          	jal	ra,a222ac <drv_rom_cipher_init>
  a21a1e:	85aa                	mv	a1,a0
  a21a20:	cd01                	beqz	a0,a21a38 <loader_burn_efuse+0x76>
  a21a22:	00a2 6bbc 051f      	l.li	a0,0xa26bbc
  a21a28:	112030ef          	jal	ra,a24b3a <boot_msg1>
  a21a2c:	00a2 6c54 051f      	l.li	a0,0xa26c54
  a21a32:	0f6030ef          	jal	ra,a24b28 <boot_msg0>
  a21a36:	b765                	j	a219de <loader_burn_efuse+0x1c>
  a21a38:	fe040593          	addi	a1,s0,-32
  a21a3c:	00a30437          	lui	s0,0xa30
  a21a40:	02000693          	li	a3,32
  a21a44:	0810                	addi	a2,sp,16
  a21a46:	02040513          	addi	a0,s0,32 # a30020 <__data_load__+0x8750>
  a21a4a:	031000ef          	jal	ra,a2227a <drv_rom_cipher_sha256>
  a21a4e:	85aa                	mv	a1,a0
  a21a50:	c509                	beqz	a0,a21a5a <loader_burn_efuse+0x98>
  a21a52:	00a2 6bdc 051f      	l.li	a0,0xa26bdc
  a21a58:	bfc1                	j	a21a28 <loader_burn_efuse+0x66>
  a21a5a:	07d000ef          	jal	ra,a222d6 <drv_rom_cipher_deinit>
  a21a5e:	8baa                	mv	s7,a0
  a21a60:	c511                	beqz	a0,a21a6c <loader_burn_efuse+0xaa>
  a21a62:	85aa                	mv	a1,a0
  a21a64:	00a2 6c00 051f      	l.li	a0,0xa26c00
  a21a6a:	bf7d                	j	a21a28 <loader_burn_efuse+0x66>
  a21a6c:	02000613          	li	a2,32
  a21a70:	080c                	addi	a1,sp,16
  a21a72:	00a30537          	lui	a0,0xa30
  a21a76:	b18ff0ef          	jal	ra,a20d8e <memcmp>
  a21a7a:	c519                	beqz	a0,a21a88 <loader_burn_efuse+0xc6>
  a21a7c:	00a2 6c24 051f      	l.li	a0,0xa26c24
  a21a82:	0a6030ef          	jal	ra,a24b28 <boot_msg0>
  a21a86:	b75d                	j	a21a2c <loader_burn_efuse+0x6a>
  a21a88:	303e                	lhu	a5,34(s0)
  a21a8a:	1407e33b          	bltui	a5,20,a21a96 <loader_burn_efuse+0xd4>
  a21a8e:	00a2 6c3c 051f      	l.li	a0,0xa26c3c
  a21a94:	b7fd                	j	a21a82 <loader_burn_efuse+0xc0>
  a21a96:	02144783          	lbu	a5,33(s0)
  a21a9a:	4c81                	li	s9,0
  a21a9c:	00a30ab7          	lui	s5,0xa30
  a21aa0:	943e                	add	s0,s0,a5
  a21aa2:	4b05                	li	s6,1
  a21aa4:	00a27a37          	lui	s4,0xa27
  a21aa8:	00a279b7          	lui	s3,0xa27
  a21aac:	00a27937          	lui	s2,0xa27
  a21ab0:	00a274b7          	lui	s1,0xa27
  a21ab4:	022ad783          	lhu	a5,34(s5) # a30022 <__data_load__+0x8752>
  a21ab8:	f4fcf9e3          	bgeu	s9,a5,a21a0a <loader_burn_efuse+0x48>
  a21abc:	f20401e3          	beqz	s0,a219de <loader_burn_efuse+0x1c>
  a21ac0:	00245d83          	lhu	s11,2(s0)
  a21ac4:	00445d03          	lhu	s10,4(s0)
  a21ac8:	00840713          	addi	a4,s0,8
  a21acc:	8c6e                	mv	s8,s11
  a21ace:	9d6e                	add	s10,s10,s11
  a21ad0:	41bc07b3          	sub	a5,s8,s11
  a21ad4:	9fa1                	uxth	a5
  a21ad6:	01ac4a63          	blt	s8,s10,a21aea <loader_burn_efuse+0x128>
  a21ada:	301c                	lbu	a5,1(s0)
  a21adc:	207a                	lhu	a4,6(s0)
  a21ade:	0c85                	addi	s9,s9,1
  a21ae0:	0ffcfc93          	andi	s9,s9,255
  a21ae4:	97ba                	add	a5,a5,a4
  a21ae6:	943e                	add	s0,s0,a5
  a21ae8:	b7f1                	j	a21ab4 <loader_burn_efuse+0xf2>
  a21aea:	46f7069b          	addshf	a3,a4,a5,srl,3
  a21aee:	2294                	lbu	a3,0(a3)
  a21af0:	8b9d                	andi	a5,a5,7
  a21af2:	00fb17b3          	sll	a5,s6,a5
  a21af6:	8ff5                	and	a5,a5,a3
  a21af8:	e791                	bnez	a5,a21b04 <loader_burn_efuse+0x142>
  a21afa:	0c05                	addi	s8,s8,1
  a21afc:	0c42                	slli	s8,s8,0x10
  a21afe:	010c5c13          	srli	s8,s8,0x10
  a21b02:	b7f9                	j	a21ad0 <loader_burn_efuse+0x10e>
  a21b04:	007c7593          	andi	a1,s8,7
  a21b08:	003c5513          	srli	a0,s8,0x3
  a21b0c:	c63a                	sw	a4,12(sp)
  a21b0e:	016010ef          	jal	ra,a22b24 <uapi_efuse_write_bit>
  a21b12:	4732                	lw	a4,12(sp)
  a21b14:	d17d                	beqz	a0,a21afa <loader_burn_efuse+0x138>
  a21b16:	85e6                	mv	a1,s9
  a21b18:	c70a0513          	addi	a0,s4,-912 # a26c70 <g_crc16_tab+0x334>
  a21b1c:	01e030ef          	jal	ra,a24b3a <boot_msg1>
  a21b20:	c8c98513          	addi	a0,s3,-884 # a26c8c <g_crc16_tab+0x350>
  a21b24:	6f7020ef          	jal	ra,a24a1a <serial_puts>
  a21b28:	202a                	lhu	a0,2(s0)
  a21b2a:	4585                	li	a1,1
  a21b2c:	747020ef          	jal	ra,a24a72 <serial_puthex>
  a21b30:	c9890513          	addi	a0,s2,-872 # a26c98 <g_crc16_tab+0x35c>
  a21b34:	6e7020ef          	jal	ra,a24a1a <serial_puts>
  a21b38:	204a                	lhu	a0,4(s0)
  a21b3a:	4585                	li	a1,1
  a21b3c:	737020ef          	jal	ra,a24a72 <serial_puthex>
  a21b40:	d5848513          	addi	a0,s1,-680 # a26d58 <sfc_cfg+0x98>
  a21b44:	6d7020ef          	jal	ra,a24a1a <serial_puts>
  a21b48:	bf49                	j	a21ada <loader_burn_efuse+0x118>

00a21b4a <loader_read_efuse>:
  a21b4a:	8258                	push	{ra,s0-s3},-64
  a21b4c:	2542                	lhu	s0,12(a0)
  a21b4e:	02000613          	li	a2,32
  a21b52:	4581                	li	a1,0
  a21b54:	850a                	mv	a0,sp
  a21b56:	eeffe0ef          	jal	ra,a20a44 <memset>
  a21b5a:	00a2 6ca4 051f      	l.li	a0,0xa26ca4
  a21b60:	7c9020ef          	jal	ra,a24b28 <boot_msg0>
  a21b64:	00a2 6c8c 051f      	l.li	a0,0xa26c8c
  a21b6a:	6b1020ef          	jal	ra,a24a1a <serial_puts>
  a21b6e:	8522                	mv	a0,s0
  a21b70:	4585                	li	a1,1
  a21b72:	701020ef          	jal	ra,a24a72 <serial_puthex>
  a21b76:	00a2 72d4 051f      	l.li	a0,0xa272d4
  a21b7c:	69f020ef          	jal	ra,a24a1a <serial_puts>
  a21b80:	130464bb          	bltui	s0,19,a21b92 <loader_read_efuse+0x48>
  a21b84:	00a2 6cb0 051f      	l.li	a0,0xa26cb0
  a21b8a:	79f020ef          	jal	ra,a24b28 <boot_msg0>
  a21b8e:	547d                	li	s0,-1
  a21b90:	a825                	j	a21bc8 <loader_read_efuse+0x7e>
  a21b92:	0ff47513          	andi	a0,s0,255
  a21b96:	02000613          	li	a2,32
  a21b9a:	858a                	mv	a1,sp
  a21b9c:	4f3020ef          	jal	ra,a2488e <efuse_read_item>
  a21ba0:	842a                	mv	s0,a0
  a21ba2:	f575                	bnez	a0,a21b8e <loader_read_efuse+0x44>
  a21ba4:	4481                	li	s1,0
  a21ba6:	00a279b7          	lui	s3,0xa27
  a21baa:	02000913          	li	s2,32
  a21bae:	009107b3          	add	a5,sp,s1
  a21bb2:	2388                	lbu	a0,0(a5)
  a21bb4:	4585                	li	a1,1
  a21bb6:	0485                	addi	s1,s1,1
  a21bb8:	6bb020ef          	jal	ra,a24a72 <serial_puthex>
  a21bbc:	cbc98513          	addi	a0,s3,-836 # a26cbc <g_crc16_tab+0x380>
  a21bc0:	65b020ef          	jal	ra,a24a1a <serial_puts>
  a21bc4:	ff2495e3          	bne	s1,s2,a21bae <loader_read_efuse+0x64>
  a21bc8:	8522                	mv	a0,s0
  a21bca:	8254                	popret	{ra,s0-s3},64

00a21bcc <sfc_flash_read>:
  a21bcc:	87b2                	mv	a5,a2
  a21bce:	862e                	mv	a2,a1
  a21bd0:	85be                	mv	a1,a5
  a21bd2:	1410206f          	j	a24512 <uapi_sfc_reg_read>

00a21bd6 <sfc_flash_init>:
  a21bd6:	00a2 6cc0 051f      	l.li	a0,0xa26cc0
  a21bdc:	08d0206f          	j	a24468 <uapi_sfc_init>

00a21be0 <sfc_flash_erase>:
  a21be0:	ff05923b          	bnei	a1,-1,a21be8 <sfc_flash_erase+0x8>
  a21be4:	3bf0206f          	j	a247a2 <uapi_sfc_reg_erase_chip>
  a21be8:	ffe007b7          	lui	a5,0xffe00
  a21bec:	953e                	add	a0,a0,a5
  a21bee:	2f70206f          	j	a246e4 <uapi_sfc_reg_erase>

00a21bf2 <sfc_flash_write>:
  a21bf2:	00b508b3          	add	a7,a0,a1
  a21bf6:	00800837          	lui	a6,0x800
  a21bfa:	86ae                	mv	a3,a1
  a21bfc:	0108f763          	bgeu	a7,a6,a21c0a <sfc_flash_write+0x18>
  a21c00:	8732                	mv	a4,a2
  a21c02:	862e                	mv	a2,a1
  a21c04:	85ba                	mv	a1,a4
  a21c06:	1e10206f          	j	a245e6 <uapi_sfc_reg_write>
  a21c0a:	8018                	push	{ra},-16
  a21c0c:	87aa                	mv	a5,a0
  a21c0e:	00200537          	lui	a0,0x200
  a21c12:	953e                	add	a0,a0,a5
  a21c14:	05b030ef          	jal	ra,a2546e <memcpy_s>
  a21c18:	00a03533          	snez	a0,a0
  a21c1c:	40a00533          	neg	a0,a0
  a21c20:	8014                	popret	{ra},16

00a21c22 <start_loaderboot>:
  a21c22:	9f18                	push	{ra},-512
  a21c24:	db010113          	addi	sp,sp,-592
  a21c28:	41000613          	li	a2,1040
  a21c2c:	4581                	li	a1,0
  a21c2e:	1808                	addi	a0,sp,48
  a21c30:	e15fe0ef          	jal	ra,a20a44 <memset>
  a21c34:	4e9020ef          	jal	ra,a2491c <boot_clock_adapt>
  a21c38:	451d                	li	a0,7
  a21c3a:	4f9000ef          	jal	ra,a22932 <uapi_watchdog_init>
  a21c3e:	4501                	li	a0,0
  a21c40:	545000ef          	jal	ra,a22984 <uapi_watchdog_enable>
  a21c44:	6f8000ef          	jal	ra,a2233c <uapi_tcxo_init>
  a21c48:	4631                	li	a2,12
  a21c4a:	00a0 6a94 059f      	l.li	a1,0xa06a94
  a21c50:	850a                	mv	a0,sp
  a21c52:	ea1fe0ef          	jal	ra,a20af2 <memcpy>
  a21c56:	4581                	li	a1,0
  a21c58:	850a                	mv	a0,sp
  a21c5a:	6fd020ef          	jal	ra,a24b56 <hiburn_uart_init>
  a21c5e:	00a2 6ccc 051f      	l.li	a0,0xa26ccc
  a21c64:	6c5020ef          	jal	ra,a24b28 <boot_msg0>
  a21c68:	00a2 1bd6 079f      	l.li	a5,0xa21bd6
  a21c6e:	ce3e                	sw	a5,28(sp)
  a21c70:	00a2 1bcc 079f      	l.li	a5,0xa21bcc
  a21c76:	d03e                	sw	a5,32(sp)
  a21c78:	00a2 1bf2 079f      	l.li	a5,0xa21bf2
  a21c7e:	d23e                	sw	a5,36(sp)
  a21c80:	0868                	addi	a0,sp,28
  a21c82:	00a2 1be0 079f      	l.li	a5,0xa21be0
  a21c88:	d43e                	sw	a5,40(sp)
  a21c8a:	d602                	sw	zero,44(sp)
  a21c8c:	978ff0ef          	jal	ra,a20e04 <boot_regist_flash_cmd>
  a21c90:	40003737          	lui	a4,0x40003
  a21c94:	15472783          	lw	a5,340(a4) # 40003154 <__data_load__+0x3f5db884>
  a21c98:	010006b7          	lui	a3,0x1000
  a21c9c:	4515                	li	a0,5
  a21c9e:	8fd5                	or	a5,a5,a3
  a21ca0:	14f72a23          	sw	a5,340(a4)
  a21ca4:	553020ef          	jal	ra,a249f6 <mdelay>
  a21ca8:	373d                	jal	ra,a21bd6 <sfc_flash_init>
  a21caa:	c539                	beqz	a0,a21cf8 <start_loaderboot+0xd6>
  a21cac:	85aa                	mv	a1,a0
  a21cae:	00a2 6ce8 051f      	l.li	a0,0xa26ce8
  a21cb4:	687020ef          	jal	ra,a24b3a <boot_msg1>
  a21cb8:	4a9020ef          	jal	ra,a24960 <switch_flash_clock_to_pll>
  a21cbc:	4d1020ef          	jal	ra,a2498c <config_sfc_ctrl_ds>
  a21cc0:	5b6020ef          	jal	ra,a24276 <sfc_port_fix_sr>
  a21cc4:	85aa                	mv	a1,a0
  a21cc6:	c511                	beqz	a0,a21cd2 <start_loaderboot+0xb0>
  a21cc8:	00a2 6d14 051f      	l.li	a0,0xa26d14
  a21cce:	66d020ef          	jal	ra,a24b3a <boot_msg1>
  a21cd2:	3cb020ef          	jal	ra,a2489c <set_efuse_period>
  a21cd6:	58f000ef          	jal	ra,a22a64 <uapi_efuse_init>
  a21cda:	765020ef          	jal	ra,a24c3e <boot_malloc_init>
  a21cde:	05a00513          	li	a0,90
  a21ce2:	de2ff0ef          	jal	ra,a212c4 <loader_ack>
  a21ce6:	00a2 6d28 051f      	l.li	a0,0xa26d28
  a21cec:	63d020ef          	jal	ra,a24b28 <boot_msg0>
  a21cf0:	1808                	addi	a0,sp,48
  a21cf2:	e48ff0ef          	jal	ra,a2133a <cmd_loop>
  a21cf6:	a001                	j	a21cf6 <start_loaderboot+0xd4>
  a21cf8:	00a2 6d00 051f      	l.li	a0,0xa26d00
  a21cfe:	62b020ef          	jal	ra,a24b28 <boot_msg0>
  a21d02:	bf5d                	j	a21cb8 <start_loaderboot+0x96>

00a21d04 <serial_port_set_baudrate>:
  a21d04:	8128                	push	{ra,s0},-32
  a21d06:	842a                	mv	s0,a0
  a21d08:	6cb020ef          	jal	ra,a24bd2 <hiburn_uart_deinit>
  a21d0c:	440017b7          	lui	a5,0x44001
  a21d10:	1047a703          	lw	a4,260(a5) # 44001104 <__data_load__+0x435d9834>
  a21d14:	fffb ffff 069f      	l.li	a3,0xfffbffff
  a21d1a:	0989 6800 059f      	l.li	a1,0x9896800
  a21d20:	8f75                	and	a4,a4,a3
  a21d22:	10e7a223          	sw	a4,260(a5)
  a21d26:	1347a703          	lw	a4,308(a5)
  a21d2a:	000406b7          	lui	a3,0x40
  a21d2e:	4501                	li	a0,0
  a21d30:	00276713          	ori	a4,a4,2
  a21d34:	12e7aa23          	sw	a4,308(a5)
  a21d38:	1047a703          	lw	a4,260(a5)
  a21d3c:	8f55                	or	a4,a4,a3
  a21d3e:	10e7a223          	sw	a4,260(a5)
  a21d42:	258020ef          	jal	ra,a23f9a <uart_port_set_clock_value>
  a21d46:	4631                	li	a2,12
  a21d48:	85a2                	mv	a1,s0
  a21d4a:	850a                	mv	a0,sp
  a21d4c:	da7fe0ef          	jal	ra,a20af2 <memcpy>
  a21d50:	850a                	mv	a0,sp
  a21d52:	4581                	li	a1,0
  a21d54:	603020ef          	jal	ra,a24b56 <hiburn_uart_init>
  a21d58:	4501                	li	a0,0
  a21d5a:	8124                	popret	{ra,s0},32

00a21d5c <uart_ack>:
  a21d5c:	8038                	push	{ra,s0-s1},-16
  a21d5e:	dead beef 079f      	l.li	a5,0xdeadbeef
  a21d64:	c15c                	sw	a5,4(a0)
  a21d66:	1ee1 000c 079f      	l.li	a5,0x1ee1000c
  a21d6c:	00450493          	addi	s1,a0,4 # 200004 <g_intheap_size+0x1e6aa4>
  a21d70:	c51c                	sw	a5,8(a0)
  a21d72:	05a00793          	li	a5,90
  a21d76:	842a                	mv	s0,a0
  a21d78:	a55e                	sh	a5,12(a0)
  a21d7a:	4629                	li	a2,10
  a21d7c:	85a6                	mv	a1,s1
  a21d7e:	4501                	li	a0,0
  a21d80:	3685                	jal	ra,a218e0 <crc16_ccitt>
  a21d82:	240e                	lhu	a1,8(s0)
  a21d84:	40a41623          	sh	a0,1036(s0)
  a21d88:	8526                	mv	a0,s1
  a21d8a:	15f9                	addi	a1,a1,-2 # 1ffe <ccause+0x103c>
  a21d8c:	4b3020ef          	jal	ra,a24a3e <serial_put_buf>
  a21d90:	4589                	li	a1,2
  a21d92:	40c40513          	addi	a0,s0,1036
  a21d96:	8030                	pop	{ra,s0-s1},16
  a21d98:	4a70206f          	j	a24a3e <serial_put_buf>

00a21d9c <uart_baudrate_rcv>:
  a21d9c:	9f38                	push	{ra,s0-s1},-512
  a21d9e:	de010113          	addi	sp,sp,-544
  a21da2:	84aa                	mv	s1,a0
  a21da4:	41000613          	li	a2,1040
  a21da8:	4581                	li	a1,0
  a21daa:	850a                	mv	a0,sp
  a21dac:	c99fe0ef          	jal	ra,a20a44 <memset>
  a21db0:	449c                	lw	a5,8(s1)
  a21db2:	00ff ffff 071f      	l.li	a4,0xffffff
  a21db8:	4501                	li	a0,0
  a21dba:	8ff9                	and	a5,a5,a4
  a21dbc:	005a 0012 071f      	l.li	a4,0x5a0012
  a21dc2:	02e79363          	bne	a5,a4,a21de8 <uart_baudrate_rcv+0x4c>
  a21dc6:	00a06437          	lui	s0,0xa06
  a21dca:	46a1                	li	a3,8
  a21dcc:	00c48613          	addi	a2,s1,12
  a21dd0:	45b1                	li	a1,12
  a21dd2:	60040513          	addi	a0,s0,1536 # a06600 <g_uart_param>
  a21dd6:	698030ef          	jal	ra,a2546e <memcpy_s>
  a21dda:	850a                	mv	a0,sp
  a21ddc:	3741                	jal	ra,a21d5c <uart_ack>
  a21dde:	4515                	li	a0,5
  a21de0:	417020ef          	jal	ra,a249f6 <mdelay>
  a21de4:	60040513          	addi	a0,s0,1536
  a21de8:	41010113          	addi	sp,sp,1040
  a21dec:	8034                	popret	{ra,s0-s1},16

00a21dee <loader_download_is_flash_all_erased>:
  a21dee:	00a0 660c 079f      	l.li	a5,0xa0660c
  a21df4:	2388                	lbu	a0,0(a5)
  a21df6:	8082                	ret

00a21df8 <loader_erase_all_process>:
  a21df8:	2538                	lbu	a4,10(a0)
  a21dfa:	0d200793          	li	a5,210
  a21dfe:	00f70663          	beq	a4,a5,a21e0a <loader_erase_all_process+0x12>
  a21e02:	557d                	li	a0,-1
  a21e04:	8082                	ret
  a21e06:	557d                	li	a0,-1
  a21e08:	8134                	popret	{ra,s0-s1},32
  a21e0a:	8138                	push	{ra,s0-s1},-32
  a21e0c:	4904                	lw	s1,16(a0)
  a21e0e:	495c                	lw	a5,20(a0)
  a21e10:	842e                	mv	s0,a1
  a21e12:	009034b3          	snez	s1,s1
  a21e16:	ff0799bb          	bnei	a5,-1,a21e3c <loader_erase_all_process+0x44>
  a21e1a:	fe3fe0ef          	jal	ra,a20dfc <boot_get_flash_funcs>
  a21e1e:	c62a                	sw	a0,12(sp)
  a21e20:	d17d                	beqz	a0,a21e06 <loader_erase_all_process+0xe>
  a21e22:	5cb020ef          	jal	ra,a24bec <boot_wdt_kick>
  a21e26:	4532                	lw	a0,12(sp)
  a21e28:	55fd                	li	a1,-1
  a21e2a:	455c                	lw	a5,12(a0)
  a21e2c:	4501                	li	a0,0
  a21e2e:	9782                	jalr	a5
  a21e30:	fd61                	bnez	a0,a21e08 <loader_erase_all_process+0x10>
  a21e32:	00a0 660c 079f      	l.li	a5,0xa0660c
  a21e38:	4705                	li	a4,1
  a21e3a:	a398                	sb	a4,0(a5)
  a21e3c:	a004                	sb	s1,0(s0)
  a21e3e:	4501                	li	a0,0
  a21e40:	b7e1                	j	a21e08 <loader_erase_all_process+0x10>

00a21e42 <non_os_enter_critical>:
  a21e42:	8038                	push	{ra,s0-s1},-16
  a21e44:	300024f3          	csrr	s1,mstatus
  a21e48:	300477f3          	csrrci	a5,mstatus,8
  a21e4c:	00a06437          	lui	s0,0xa06
  a21e50:	61c40793          	addi	a5,s0,1564 # a0661c <g_non_os_critical_nesting>
  a21e54:	239e                	lhu	a5,0(a5)
  a21e56:	61c40413          	addi	s0,s0,1564
  a21e5a:	9fa1                	uxth	a5
  a21e5c:	eb89                	bnez	a5,a21e6e <non_os_enter_critical+0x2c>
  a21e5e:	00a0 6614 079f      	l.li	a5,0xa06614
  a21e64:	439c                	lw	a5,0(a5)
  a21e66:	c781                	beqz	a5,a21e6e <non_os_enter_critical+0x2c>
  a21e68:	8586                	mv	a1,ra
  a21e6a:	4501                	li	a0,0
  a21e6c:	9782                	jalr	a5
  a21e6e:	00a0 6610 079f      	l.li	a5,0xa06610
  a21e74:	439c                	lw	a5,0(a5)
  a21e76:	c789                	beqz	a5,a21e80 <non_os_enter_critical+0x3e>
  a21e78:	8586                	mv	a1,ra
  a21e7a:	2012                	lhu	a2,0(s0)
  a21e7c:	4501                	li	a0,0
  a21e7e:	9782                	jalr	a5
  a21e80:	201e                	lhu	a5,0(s0)
  a21e82:	9fa1                	uxth	a5
  a21e84:	eb89                	bnez	a5,a21e96 <non_os_enter_critical+0x54>
  a21e86:	808d                	srli	s1,s1,0x3
  a21e88:	0014c493          	xori	s1,s1,1
  a21e8c:	8885                	andi	s1,s1,1
  a21e8e:	00a0 6618 079f      	l.li	a5,0xa06618
  a21e94:	c384                	sw	s1,0(a5)
  a21e96:	201e                	lhu	a5,0(s0)
  a21e98:	0785                	addi	a5,a5,1
  a21e9a:	9fa1                	uxth	a5
  a21e9c:	a01e                	sh	a5,0(s0)
  a21e9e:	201e                	lhu	a5,0(s0)
  a21ea0:	9fa1                	uxth	a5
  a21ea2:	eb81                	bnez	a5,a21eb2 <non_os_enter_critical+0x70>
  a21ea4:	06300593          	li	a1,99
  a21ea8:	03100513          	li	a0,49
  a21eac:	8030                	pop	{ra,s0-s1},16
  a21eae:	4520306f          	j	a25300 <panic>
  a21eb2:	0ff0000f          	fence
  a21eb6:	0ff0000f          	fence
  a21eba:	8034                	popret	{ra,s0-s1},16

00a21ebc <non_os_exit_critical>:
  a21ebc:	8038                	push	{ra,s0-s1},-16
  a21ebe:	00a06437          	lui	s0,0xa06
  a21ec2:	61c40793          	addi	a5,s0,1564 # a0661c <g_non_os_critical_nesting>
  a21ec6:	239e                	lhu	a5,0(a5)
  a21ec8:	9fa1                	uxth	a5
  a21eca:	eb81                	bnez	a5,a21eda <non_os_exit_critical+0x1e>
  a21ecc:	06f00593          	li	a1,111
  a21ed0:	03100513          	li	a0,49
  a21ed4:	8030                	pop	{ra,s0-s1},16
  a21ed6:	42a0306f          	j	a25300 <panic>
  a21eda:	61c40413          	addi	s0,s0,1564
  a21ede:	201e                	lhu	a5,0(s0)
  a21ee0:	8486                	mv	s1,ra
  a21ee2:	17fd                	addi	a5,a5,-1
  a21ee4:	9fa1                	uxth	a5
  a21ee6:	a01e                	sh	a5,0(s0)
  a21ee8:	00a0 6610 079f      	l.li	a5,0xa06610
  a21eee:	439c                	lw	a5,0(a5)
  a21ef0:	c789                	beqz	a5,a21efa <non_os_exit_critical+0x3e>
  a21ef2:	8586                	mv	a1,ra
  a21ef4:	2012                	lhu	a2,0(s0)
  a21ef6:	4505                	li	a0,1
  a21ef8:	9782                	jalr	a5
  a21efa:	201e                	lhu	a5,0(s0)
  a21efc:	9fa1                	uxth	a5
  a21efe:	e785                	bnez	a5,a21f26 <non_os_exit_critical+0x6a>
  a21f00:	00a0 6614 079f      	l.li	a5,0xa06614
  a21f06:	439c                	lw	a5,0(a5)
  a21f08:	c781                	beqz	a5,a21f10 <non_os_exit_critical+0x54>
  a21f0a:	85a6                	mv	a1,s1
  a21f0c:	4505                	li	a0,1
  a21f0e:	9782                	jalr	a5
  a21f10:	00a0 6618 079f      	l.li	a5,0xa06618
  a21f16:	439c                	lw	a5,0(a5)
  a21f18:	e399                	bnez	a5,a21f1e <non_os_exit_critical+0x62>
  a21f1a:	300467f3          	csrrsi	a5,mstatus,8
  a21f1e:	0ff0000f          	fence
  a21f22:	0ff0000f          	fence
  a21f26:	8034                	popret	{ra,s0-s1},16

00a21f28 <malloc_register_funcs>:
  a21f28:	8018                	push	{ra},-16
  a21f2a:	862a                	mv	a2,a0
  a21f2c:	46b1                	li	a3,12
  a21f2e:	45b1                	li	a1,12
  a21f30:	00a0 6620 051f      	l.li	a0,0xa06620
  a21f36:	538030ef          	jal	ra,a2546e <memcpy_s>
  a21f3a:	4501                	li	a0,0
  a21f3c:	8014                	popret	{ra},16

00a21f3e <rom_malloc_init>:
  a21f3e:	8038                	push	{ra,s0-s1},-16
  a21f40:	842e                	mv	s0,a1
  a21f42:	46e1                	li	a3,24
  a21f44:	4601                	li	a2,0
  a21f46:	45e1                	li	a1,24
  a21f48:	84aa                	mv	s1,a0
  a21f4a:	55c030ef          	jal	ra,a254a6 <memset_s>
  a21f4e:	ff840793          	addi	a5,s0,-8
  a21f52:	00a0 662c 071f      	l.li	a4,0xa0662c
  a21f58:	01b48513          	addi	a0,s1,27
  a21f5c:	9bf1                	andi	a5,a5,-4
  a21f5e:	9971                	andi	a0,a0,-4
  a21f60:	cb1c                	sw	a5,16(a4)
  a21f62:	17e1                	addi	a5,a5,-8
  a21f64:	8f89                	sub	a5,a5,a0
  a21f66:	c748                	sw	a0,12(a4)
  a21f68:	9fa1                	uxth	a5
  a21f6a:	a15e                	sh	a5,4(a0)
  a21f6c:	c71c                	sw	a5,8(a4)
  a21f6e:	679d                	lui	a5,0x7
  a21f70:	07478793          	addi	a5,a5,116 # 7074 <ccause+0x60b2>
  a21f74:	a17e                	sh	a5,6(a0)
  a21f76:	00052023          	sw	zero,0(a0)
  a21f7a:	8034                	popret	{ra,s0-s1},16

00a21f7c <malloc_init>:
  a21f7c:	b7c9                	j	a21f3e <rom_malloc_init>

00a21f7e <rom_malloc>:
  a21f7e:	00a066b7          	lui	a3,0xa06
  a21f82:	62c68793          	addi	a5,a3,1580 # a0662c <g_st_dfx>
  a21f86:	47dc                	lw	a5,12(a5)
  a21f88:	62c68693          	addi	a3,a3,1580
  a21f8c:	e399                	bnez	a5,a21f92 <rom_malloc+0x14>
  a21f8e:	4501                	li	a0,0
  a21f90:	8082                	ret
  a21f92:	dd75                	beqz	a0,a21f8e <rom_malloc+0x10>
  a21f94:	23f2                	lhu	a2,6(a5)
  a21f96:	671d                	lui	a4,0x7
  a21f98:	07470813          	addi	a6,a4,116 # 7074 <ccause+0x60b2>
  a21f9c:	01060663          	beq	a2,a6,a21fa8 <rom_malloc+0x2a>
  a21fa0:	c6c70713          	addi	a4,a4,-916
  a21fa4:	fee615e3          	bne	a2,a4,a21f8e <rom_malloc+0x10>
  a21fa8:	050d                	addi	a0,a0,3
  a21faa:	9971                	andi	a0,a0,-4
  a21fac:	671d                	lui	a4,0x7
  a21fae:	9d21                	uxth	a0
  a21fb0:	4881                	li	a7,0
  a21fb2:	07470613          	addi	a2,a4,116 # 7074 <ccause+0x60b2>
  a21fb6:	00850813          	addi	a6,a0,8
  a21fba:	c6c70313          	addi	t1,a4,-916
  a21fbe:	0067de03          	lhu	t3,6(a5)
  a21fc2:	23da                	lhu	a4,4(a5)
  a21fc4:	04ce1263          	bne	t3,a2,a22008 <rom_malloc+0x8a>
  a21fc8:	02e87563          	bgeu	a6,a4,a21ff2 <rom_malloc+0x74>
  a21fcc:	8f09                	sub	a4,a4,a0
  a21fce:	983e                	add	a6,a6,a5
  a21fd0:	1761                	addi	a4,a4,-8
  a21fd2:	00e81223          	sh	a4,4(a6) # 800004 <g_intheap_size+0x7e6aa4>
  a21fd6:	00c81323          	sh	a2,6(a6)
  a21fda:	671d                	lui	a4,0x7
  a21fdc:	c6c70713          	addi	a4,a4,-916 # 6c6c <ccause+0x5caa>
  a21fe0:	c38c                	sw	a1,0(a5)
  a21fe2:	a3fa                	sh	a4,6(a5)
  a21fe4:	4298                	lw	a4,0(a3)
  a21fe6:	a3ca                	sh	a0,4(a5)
  a21fe8:	953a                	add	a0,a0,a4
  a21fea:	c288                	sw	a0,0(a3)
  a21fec:	00878513          	addi	a0,a5,8
  a21ff0:	8082                	ret
  a21ff2:	00a76b63          	bltu	a4,a0,a22008 <rom_malloc+0x8a>
  a21ff6:	661d                	lui	a2,0x7
  a21ff8:	c6c60613          	addi	a2,a2,-916 # 6c6c <ccause+0x5caa>
  a21ffc:	c38c                	sw	a1,0(a5)
  a21ffe:	a3f2                	sh	a2,6(a5)
  a22000:	4290                	lw	a2,0(a3)
  a22002:	9732                	add	a4,a4,a2
  a22004:	c298                	sw	a4,0(a3)
  a22006:	b7dd                	j	a21fec <rom_malloc+0x6e>
  a22008:	0721                	addi	a4,a4,8
  a2200a:	97ba                	add	a5,a5,a4
  a2200c:	4a98                	lw	a4,16(a3)
  a2200e:	00e7ef63          	bltu	a5,a4,a2202c <rom_malloc+0xae>
  a22012:	f6089ee3          	bnez	a7,a21f8e <rom_malloc+0x10>
  a22016:	46d8                	lw	a4,12(a3)
  a22018:	235e                	lhu	a5,4(a4)
  a2201a:	0106ae03          	lw	t3,16(a3)
  a2201e:	07a1                	addi	a5,a5,8
  a22020:	00f708b3          	add	a7,a4,a5
  a22024:	01c8ea63          	bltu	a7,t3,a22038 <rom_malloc+0xba>
  a22028:	46dc                	lw	a5,12(a3)
  a2202a:	4885                	li	a7,1
  a2202c:	23fa                	lhu	a4,6(a5)
  a2202e:	f86708e3          	beq	a4,t1,a21fbe <rom_malloc+0x40>
  a22032:	f8c706e3          	beq	a4,a2,a21fbe <rom_malloc+0x40>
  a22036:	bfa1                	j	a21f8e <rom_malloc+0x10>
  a22038:	00675e03          	lhu	t3,6(a4)
  a2203c:	00ce1b63          	bne	t3,a2,a22052 <rom_malloc+0xd4>
  a22040:	0068de03          	lhu	t3,6(a7)
  a22044:	00ce1763          	bne	t3,a2,a22052 <rom_malloc+0xd4>
  a22048:	0048d883          	lhu	a7,4(a7)
  a2204c:	97c6                	add	a5,a5,a7
  a2204e:	a35e                	sh	a5,4(a4)
  a22050:	88ba                	mv	a7,a4
  a22052:	8746                	mv	a4,a7
  a22054:	b7d1                	j	a22018 <rom_malloc+0x9a>

00a22056 <malloc>:
  a22056:	8018                	push	{ra},-16
  a22058:	8586                	mv	a1,ra
  a2205a:	8010                	pop	{ra},16
  a2205c:	b70d                	j	a21f7e <rom_malloc>

00a2205e <rom_free>:
  a2205e:	c50d                	beqz	a0,a22088 <rom_free+0x2a>
  a22060:	ffe55703          	lhu	a4,-2(a0)
  a22064:	0000 6c6c 079f      	l.li	a5,0x6c6c
  a2206a:	00f71f63          	bne	a4,a5,a22088 <rom_free+0x2a>
  a2206e:	679d                	lui	a5,0x7
  a22070:	07478793          	addi	a5,a5,116 # 7074 <ccause+0x60b2>
  a22074:	fef51f23          	sh	a5,-2(a0)
  a22078:	00a0 662c 071f      	l.li	a4,0xa0662c
  a2207e:	ffc55683          	lhu	a3,-4(a0)
  a22082:	435c                	lw	a5,4(a4)
  a22084:	97b6                	add	a5,a5,a3
  a22086:	c35c                	sw	a5,4(a4)
  a22088:	4501                	li	a0,0
  a2208a:	8082                	ret

00a2208c <free>:
  a2208c:	bfc9                	j	a2205e <rom_free>

00a2208e <osal_irq_lock>:
  a2208e:	8018                	push	{ra},-16
  a22090:	3b4d                	jal	ra,a21e42 <non_os_enter_critical>
  a22092:	4501                	li	a0,0
  a22094:	8014                	popret	{ra},16

00a22096 <osal_irq_restore>:
  a22096:	b51d                	j	a21ebc <non_os_exit_critical>

00a22098 <drv_rom_hash>:
  a22098:	8e78                	push	{ra,s0-s5},-256
  a2209a:	892a                	mv	s2,a0
  a2209c:	8aae                	mv	s5,a1
  a2209e:	84b2                	mv	s1,a2
  a220a0:	4581                	li	a1,0
  a220a2:	04000613          	li	a2,64
  a220a6:	1008                	addi	a0,sp,32
  a220a8:	c63a                	sw	a4,12(sp)
  a220aa:	8a36                	mv	s4,a3
  a220ac:	843e                	mv	s0,a5
  a220ae:	997fe0ef          	jal	ra,a20a44 <memset>
  a220b2:	08000613          	li	a2,128
  a220b6:	4581                	li	a1,0
  a220b8:	1088                	addi	a0,sp,96
  a220ba:	98bfe0ef          	jal	ra,a20a44 <memset>
  a220be:	ce02                	sw	zero,28(sp)
  a220c0:	4732                	lw	a4,12(sp)
  a220c2:	000a9463          	bnez	s5,a220ca <drv_rom_hash+0x32>
  a220c6:	557d                	li	a0,-1
  a220c8:	8e74                	popret	{ra,s0-s5},256
  a220ca:	fe0a0ee3          	beqz	s4,a220c6 <drv_rom_hash+0x2e>
  a220ce:	010007b7          	lui	a5,0x1000
  a220d2:	fef4fae3          	bgeu	s1,a5,a220c6 <drv_rom_hash+0x2e>
  a220d6:	20f71c3b          	bnei	a4,32,a220c6 <drv_rom_hash+0x2e>
  a220da:	0216 9100 079f      	l.li	a5,0x2169100
  a220e0:	0cf90963          	beq	s2,a5,a221b2 <drv_rom_hash+0x11a>
  a220e4:	00a2 6d5c 061f      	l.li	a2,0xa26d5c
  a220ea:	85ca                	mv	a1,s2
  a220ec:	8522                	mv	a0,s0
  a220ee:	609000ef          	jal	ra,a22ef6 <hal_cipher_hash_config>
  a220f2:	f979                	bnez	a0,a220c8 <drv_rom_hash+0x30>
  a220f4:	03f4f913          	andi	s2,s1,63
  a220f8:	412489b3          	sub	s3,s1,s2
  a220fc:	0a099f63          	bnez	s3,a221ba <drv_rom_hash+0x122>
  a22100:	08000693          	li	a3,128
  a22104:	4601                	li	a2,0
  a22106:	08000593          	li	a1,128
  a2210a:	1088                	addi	a0,sp,96
  a2210c:	39a030ef          	jal	ra,a254a6 <memset_s>
  a22110:	86ca                	mv	a3,s2
  a22112:	013a8633          	add	a2,s5,s3
  a22116:	08000593          	li	a1,128
  a2211a:	1088                	addi	a0,sp,96
  a2211c:	352030ef          	jal	ra,a2546e <memcpy_s>
  a22120:	f15d                	bnez	a0,a220c6 <drv_rom_hash+0x2e>
  a22122:	119c                	addi	a5,sp,224
  a22124:	97ca                	add	a5,a5,s2
  a22126:	f8000713          	li	a4,-128
  a2212a:	f8e78023          	sb	a4,-128(a5) # ffff80 <__data_load__+0x5d86b0>
  a2212e:	04000993          	li	s3,64
  a22132:	3809623b          	bltui	s2,56,a2213a <drv_rom_hash+0xa2>
  a22136:	08000993          	li	s3,128
  a2213a:	00349713          	slli	a4,s1,0x3
  a2213e:	01b49613          	slli	a2,s1,0x1b
  a22142:	0000 ff00 079f      	l.li	a5,0xff00
  a22148:	50e7c79b          	andshf	a5,a5,a4,srl,8
  a2214c:	70e6261b          	orshf	a2,a2,a4,srl,24
  a22150:	8e5d                	or	a2,a2,a5
  a22152:	00ff07b7          	lui	a5,0xff0
  a22156:	1697c49b          	andshf	s1,a5,s1,sll,11
  a2215a:	8e45                	or	a2,a2,s1
  a2215c:	ffc98513          	addi	a0,s3,-4
  a22160:	109c                	addi	a5,sp,96
  a22162:	ce32                	sw	a2,28(sp)
  a22164:	4691                	li	a3,4
  a22166:	0870                	addi	a2,sp,28
  a22168:	4591                	li	a1,4
  a2216a:	953e                	add	a0,a0,a5
  a2216c:	302030ef          	jal	ra,a2546e <memcpy_s>
  a22170:	f939                	bnez	a0,a220c6 <drv_rom_hash+0x2e>
  a22172:	4695                	li	a3,5
  a22174:	864e                	mv	a2,s3
  a22176:	108c                	addi	a1,sp,96
  a22178:	8522                	mv	a0,s0
  a2217a:	65f000ef          	jal	ra,a22fd8 <hal_cipher_hash_add_in_node>
  a2217e:	f529                	bnez	a0,a220c8 <drv_rom_hash+0x30>
  a22180:	4581                	li	a1,0
  a22182:	8522                	mv	a0,s0
  a22184:	6c9000ef          	jal	ra,a2304c <hal_cipher_hash_start>
  a22188:	f121                	bnez	a0,a220c8 <drv_rom_hash+0x30>
  a2218a:	04000613          	li	a2,64
  a2218e:	100c                	addi	a1,sp,32
  a22190:	8522                	mv	a0,s0
  a22192:	0a4010ef          	jal	ra,a23236 <hal_cipher_hash_wait_done>
  a22196:	f90d                	bnez	a0,a220c8 <drv_rom_hash+0x30>
  a22198:	02000693          	li	a3,32
  a2219c:	1010                	addi	a2,sp,32
  a2219e:	02000593          	li	a1,32
  a221a2:	8552                	mv	a0,s4
  a221a4:	2ca030ef          	jal	ra,a2546e <memcpy_s>
  a221a8:	00a03533          	snez	a0,a0
  a221ac:	40a00533          	neg	a0,a0
  a221b0:	bf21                	j	a220c8 <drv_rom_hash+0x30>
  a221b2:	00a2 6d7c 061f      	l.li	a2,0xa26d7c
  a221b8:	bf0d                	j	a220ea <drv_rom_hash+0x52>
  a221ba:	4695                	li	a3,5
  a221bc:	864e                	mv	a2,s3
  a221be:	85d6                	mv	a1,s5
  a221c0:	8522                	mv	a0,s0
  a221c2:	617000ef          	jal	ra,a22fd8 <hal_cipher_hash_add_in_node>
  a221c6:	f00511e3          	bnez	a0,a220c8 <drv_rom_hash+0x30>
  a221ca:	4581                	li	a1,0
  a221cc:	8522                	mv	a0,s0
  a221ce:	67f000ef          	jal	ra,a2304c <hal_cipher_hash_start>
  a221d2:	ee051be3          	bnez	a0,a220c8 <drv_rom_hash+0x30>
  a221d6:	4601                	li	a2,0
  a221d8:	4581                	li	a1,0
  a221da:	8522                	mv	a0,s0
  a221dc:	05a010ef          	jal	ra,a23236 <hal_cipher_hash_wait_done>
  a221e0:	f20500e3          	beqz	a0,a22100 <drv_rom_hash+0x68>
  a221e4:	b5d5                	j	a220c8 <drv_rom_hash+0x30>

00a221e6 <crypto_get_phys_addr>:
  a221e6:	00a0 6644 079f      	l.li	a5,0xa06644
  a221ec:	0087a303          	lw	t1,8(a5) # ff0008 <__data_load__+0x5c8738>
  a221f0:	00030363          	beqz	t1,a221f6 <crypto_get_phys_addr+0x10>
  a221f4:	8302                	jr	t1
  a221f6:	8082                	ret

00a221f8 <drv_cipher_register_func>:
  a221f8:	c115                	beqz	a0,a2221c <drv_cipher_register_func+0x24>
  a221fa:	4118                	lw	a4,0(a0)
  a221fc:	00a0 6644 079f      	l.li	a5,0xa06644
  a22202:	c398                	sw	a4,0(a5)
  a22204:	4158                	lw	a4,4(a0)
  a22206:	c3d8                	sw	a4,4(a5)
  a22208:	4518                	lw	a4,8(a0)
  a2220a:	c798                	sw	a4,8(a5)
  a2220c:	4918                	lw	a4,16(a0)
  a2220e:	cb98                	sw	a4,16(a5)
  a22210:	4d58                	lw	a4,28(a0)
  a22212:	cfd8                	sw	a4,28(a5)
  a22214:	5118                	lw	a4,32(a0)
  a22216:	4501                	li	a0,0
  a22218:	d398                	sw	a4,32(a5)
  a2221a:	8082                	ret
  a2221c:	557d                	li	a0,-1
  a2221e:	8082                	ret

00a22220 <crypto_get_cpu_type>:
  a22220:	00a0 6644 079f      	l.li	a5,0xa06644
  a22226:	01c7a303          	lw	t1,28(a5)
  a2222a:	00030363          	beqz	t1,a22230 <crypto_get_cpu_type+0x10>
  a2222e:	8302                	jr	t1
  a22230:	4505                	li	a0,1
  a22232:	8082                	ret

00a22234 <crypto_curve_param_init>:
  a22234:	00a2 6d9c 059f      	l.li	a1,0xa26d9c
  a2223a:	00a2 6da0 051f      	l.li	a0,0xa26da0
  a22240:	a009                	j	a22242 <drv_cipher_pke_init_ecc_param>

00a22242 <drv_cipher_pke_init_ecc_param>:
  a22242:	00a067b7          	lui	a5,0xa06
  a22246:	7aa7ac23          	sw	a0,1976(a5) # a067b8 <g_ecc_params>
  a2224a:	00a067b7          	lui	a5,0xa06
  a2224e:	7ab7aa23          	sw	a1,1972(a5) # a067b4 <g_ecc_num>
  a22252:	8082                	ret

00a22254 <drv_cipher_pke_init>:
  a22254:	8028                	push	{ra,s0},-16
  a22256:	38b000ef          	jal	ra,a22de0 <hal_pke_init>
  a2225a:	842a                	mv	s0,a0
  a2225c:	c119                	beqz	a0,a22262 <drv_cipher_pke_init+0xe>
  a2225e:	397000ef          	jal	ra,a22df4 <hal_pke_deinit>
  a22262:	8522                	mv	a0,s0
  a22264:	8024                	popret	{ra,s0},16

00a22266 <drv_cipher_pke_deinit>:
  a22266:	8118                	push	{ra},-32
  a22268:	38d000ef          	jal	ra,a22df4 <hal_pke_deinit>
  a2226c:	e509                	bnez	a0,a22276 <drv_cipher_pke_deinit+0x10>
  a2226e:	c62a                	sw	a0,12(sp)
  a22270:	3a1000ef          	jal	ra,a22e10 <hal_pke_unlock>
  a22274:	4532                	lw	a0,12(sp)
  a22276:	8114                	popret	{ra},32

00a22278 <inner_get_phys_addr>:
  a22278:	8082                	ret

00a2227a <drv_rom_cipher_sha256>:
  a2227a:	8128                	push	{ra,s0},-32
  a2227c:	842a                	mv	s0,a0
  a2227e:	4505                	li	a0,1
  a22280:	c62e                	sw	a1,12(sp)
  a22282:	c432                	sw	a2,8(sp)
  a22284:	c236                	sw	a3,4(sp)
  a22286:	689000ef          	jal	ra,a2310e <hal_hash_lock>
  a2228a:	4622                	lw	a2,8(sp)
  a2228c:	45b2                	lw	a1,12(sp)
  a2228e:	4712                	lw	a4,4(sp)
  a22290:	86b2                	mv	a3,a2
  a22292:	4785                	li	a5,1
  a22294:	862e                	mv	a2,a1
  a22296:	0116 9100 051f      	l.li	a0,0x1169100
  a2229c:	85a2                	mv	a1,s0
  a2229e:	3bed                	jal	ra,a22098 <drv_rom_hash>
  a222a0:	842a                	mv	s0,a0
  a222a2:	4505                	li	a0,1
  a222a4:	3fb000ef          	jal	ra,a22e9e <hal_hash_unlock>
  a222a8:	8522                	mv	a0,s0
  a222aa:	8124                	popret	{ra,s0},32

00a222ac <drv_rom_cipher_init>:
  a222ac:	8318                	push	{ra},-64
  a222ae:	02400613          	li	a2,36
  a222b2:	4581                	li	a1,0
  a222b4:	0068                	addi	a0,sp,12
  a222b6:	f8efe0ef          	jal	ra,a20a44 <memset>
  a222ba:	0ce010ef          	jal	ra,a23388 <hal_cipher_trng_init>
  a222be:	3f59                	jal	ra,a22254 <drv_cipher_pke_init>
  a222c0:	385000ef          	jal	ra,a22e44 <hal_cipher_hash_init>
  a222c4:	00a2 2278 079f      	l.li	a5,0xa22278
  a222ca:	0068                	addi	a0,sp,12
  a222cc:	ca3e                	sw	a5,20(sp)
  a222ce:	372d                	jal	ra,a221f8 <drv_cipher_register_func>
  a222d0:	3795                	jal	ra,a22234 <crypto_curve_param_init>
  a222d2:	4501                	li	a0,0
  a222d4:	8314                	popret	{ra},64

00a222d6 <drv_rom_cipher_deinit>:
  a222d6:	8018                	push	{ra},-16
  a222d8:	3779                	jal	ra,a22266 <drv_cipher_pke_deinit>
  a222da:	0bc010ef          	jal	ra,a23396 <hal_cipher_trng_deinit>
  a222de:	3e1000ef          	jal	ra,a22ebe <hal_cipher_hash_deinit>
  a222e2:	4501                	li	a0,0
  a222e4:	8014                	popret	{ra},16

00a222e6 <uapi_systick_get_count>:
  a222e6:	8048                	push	{ra,s0-s2},-16
  a222e8:	335d                	jal	ra,a2208e <osal_irq_lock>
  a222ea:	00a0 6668 079f      	l.li	a5,0xa06668
  a222f0:	239c                	lbu	a5,0(a5)
  a222f2:	e799                	bnez	a5,a22300 <uapi_systick_get_count+0x1a>
  a222f4:	334d                	jal	ra,a22096 <osal_irq_restore>
  a222f6:	4401                	li	s0,0
  a222f8:	4481                	li	s1,0
  a222fa:	8522                	mv	a0,s0
  a222fc:	85a6                	mv	a1,s1
  a222fe:	8044                	popret	{ra,s0-s2},16
  a22300:	892a                	mv	s2,a0
  a22302:	531010ef          	jal	ra,a24032 <hal_systick_get_count>
  a22306:	842a                	mv	s0,a0
  a22308:	854a                	mv	a0,s2
  a2230a:	84ae                	mv	s1,a1
  a2230c:	3369                	jal	ra,a22096 <osal_irq_restore>
  a2230e:	b7f5                	j	a222fa <uapi_systick_get_count+0x14>

00a22310 <uapi_systick_get_us>:
  a22310:	8128                	push	{ra,s0},-32
  a22312:	3fd1                	jal	ra,a222e6 <uapi_systick_get_count>
  a22314:	842a                	mv	s0,a0
  a22316:	c62e                	sw	a1,12(sp)
  a22318:	52b010ef          	jal	ra,a24042 <systick_clock_get>
  a2231c:	45b2                	lw	a1,12(sp)
  a2231e:	000f 4240 079f      	l.li	a5,0xf4240
  a22324:	02f43733          	mulhu	a4,s0,a5
  a22328:	862a                	mv	a2,a0
  a2232a:	4681                	li	a3,0
  a2232c:	02f585b3          	mul	a1,a1,a5
  a22330:	02f40533          	mul	a0,s0,a5
  a22334:	95ba                	add	a1,a1,a4
  a22336:	b06fe0ef          	jal	ra,a2063c <__udivdi3>
  a2233a:	8124                	popret	{ra,s0},32

00a2233c <uapi_tcxo_init>:
  a2233c:	8048                	push	{ra,s0-s2},-16
  a2233e:	3b81                	jal	ra,a2208e <osal_irq_lock>
  a22340:	00a0 6669 091f      	l.li	s2,0xa06669
  a22346:	00094783          	lbu	a5,0(s2)
  a2234a:	c789                	beqz	a5,a22354 <uapi_tcxo_init+0x18>
  a2234c:	33a9                	jal	ra,a22096 <osal_irq_restore>
  a2234e:	4401                	li	s0,0
  a22350:	8522                	mv	a0,s0
  a22352:	8044                	popret	{ra,s0-s2},16
  a22354:	84aa                	mv	s1,a0
  a22356:	04e010ef          	jal	ra,a233a4 <hal_tcxo_init>
  a2235a:	842a                	mv	s0,a0
  a2235c:	c501                	beqz	a0,a22364 <uapi_tcxo_init+0x28>
  a2235e:	8526                	mv	a0,s1
  a22360:	3b1d                	jal	ra,a22096 <osal_irq_restore>
  a22362:	b7fd                	j	a22350 <uapi_tcxo_init+0x14>
  a22364:	4785                	li	a5,1
  a22366:	00f90023          	sb	a5,0(s2)
  a2236a:	bfd5                	j	a2235e <uapi_tcxo_init+0x22>

00a2236c <uapi_tcxo_get_count>:
  a2236c:	8048                	push	{ra,s0-s2},-16
  a2236e:	3305                	jal	ra,a2208e <osal_irq_lock>
  a22370:	00a0 6669 079f      	l.li	a5,0xa06669
  a22376:	239c                	lbu	a5,0(a5)
  a22378:	e799                	bnez	a5,a22386 <uapi_tcxo_get_count+0x1a>
  a2237a:	3b31                	jal	ra,a22096 <osal_irq_restore>
  a2237c:	4401                	li	s0,0
  a2237e:	4481                	li	s1,0
  a22380:	8522                	mv	a0,s0
  a22382:	85a6                	mv	a1,s1
  a22384:	8044                	popret	{ra,s0-s2},16
  a22386:	892a                	mv	s2,a0
  a22388:	048010ef          	jal	ra,a233d0 <hal_tcxo_get>
  a2238c:	842a                	mv	s0,a0
  a2238e:	854a                	mv	a0,s2
  a22390:	84ae                	mv	s1,a1
  a22392:	3311                	jal	ra,a22096 <osal_irq_restore>
  a22394:	b7f5                	j	a22380 <uapi_tcxo_get_count+0x14>

00a22396 <uapi_tcxo_delay_ms>:
  a22396:	00a0 6669 079f      	l.li	a5,0xa06669
  a2239c:	239c                	lbu	a5,0(a5)
  a2239e:	c3b1                	beqz	a5,a223e2 <uapi_tcxo_delay_ms+0x4c>
  a223a0:	8048                	push	{ra,s0-s2},-16
  a223a2:	842a                	mv	s0,a0
  a223a4:	4b1010ef          	jal	ra,a24054 <tcxo_porting_ticks_per_usec_get>
  a223a8:	3e800793          	li	a5,1000
  a223ac:	02f405b3          	mul	a1,s0,a5
  a223b0:	02f43433          	mulhu	s0,s0,a5
  a223b4:	02a584b3          	mul	s1,a1,a0
  a223b8:	02a40433          	mul	s0,s0,a0
  a223bc:	02a5b5b3          	mulhu	a1,a1,a0
  a223c0:	942e                	add	s0,s0,a1
  a223c2:	376d                	jal	ra,a2236c <uapi_tcxo_get_count>
  a223c4:	00a48933          	add	s2,s1,a0
  a223c8:	009934b3          	sltu	s1,s2,s1
  a223cc:	95a2                	add	a1,a1,s0
  a223ce:	94ae                	add	s1,s1,a1
  a223d0:	3f71                	jal	ra,a2236c <uapi_tcxo_get_count>
  a223d2:	fe95efe3          	bltu	a1,s1,a223d0 <uapi_tcxo_delay_ms+0x3a>
  a223d6:	00b49463          	bne	s1,a1,a223de <uapi_tcxo_delay_ms+0x48>
  a223da:	ff256be3          	bltu	a0,s2,a223d0 <uapi_tcxo_delay_ms+0x3a>
  a223de:	4501                	li	a0,0
  a223e0:	8044                	popret	{ra,s0-s2},16
  a223e2:	557d                	li	a0,-1
  a223e4:	8082                	ret

00a223e6 <uapi_tcxo_delay_us>:
  a223e6:	00a0 6669 079f      	l.li	a5,0xa06669
  a223ec:	239c                	lbu	a5,0(a5)
  a223ee:	cb8d                	beqz	a5,a22420 <uapi_tcxo_delay_us+0x3a>
  a223f0:	8048                	push	{ra,s0-s2},-16
  a223f2:	842a                	mv	s0,a0
  a223f4:	461010ef          	jal	ra,a24054 <tcxo_porting_ticks_per_usec_get>
  a223f8:	02a404b3          	mul	s1,s0,a0
  a223fc:	02a43433          	mulhu	s0,s0,a0
  a22400:	37b5                	jal	ra,a2236c <uapi_tcxo_get_count>
  a22402:	00a48933          	add	s2,s1,a0
  a22406:	009934b3          	sltu	s1,s2,s1
  a2240a:	942e                	add	s0,s0,a1
  a2240c:	9426                	add	s0,s0,s1
  a2240e:	3fb9                	jal	ra,a2236c <uapi_tcxo_get_count>
  a22410:	fe85efe3          	bltu	a1,s0,a2240e <uapi_tcxo_delay_us+0x28>
  a22414:	00b41463          	bne	s0,a1,a2241c <uapi_tcxo_delay_us+0x36>
  a22418:	ff256be3          	bltu	a0,s2,a2240e <uapi_tcxo_delay_us+0x28>
  a2241c:	4501                	li	a0,0
  a2241e:	8044                	popret	{ra,s0-s2},16
  a22420:	557d                	li	a0,-1
  a22422:	8082                	ret

00a22424 <uart_helper_invoke_current_fragment_callback>:
  a22424:	00a0 66b8 079f      	l.li	a5,0xa066b8
  a2242a:	4ca7955b          	muliadd	a0,a5,a0,76
  a2242e:	411c                	lw	a5,0(a0)
  a22430:	0087a303          	lw	t1,8(a5)
  a22434:	00030663          	beqz	t1,a22440 <uart_helper_invoke_current_fragment_callback+0x1c>
  a22438:	43d0                	lw	a2,4(a5)
  a2243a:	47cc                	lw	a1,12(a5)
  a2243c:	4388                	lw	a0,0(a5)
  a2243e:	8302                	jr	t1
  a22440:	8082                	ret

00a22442 <uart_helper_move_to_next_fragment>:
  a22442:	04c00793          	li	a5,76
  a22446:	02f507b3          	mul	a5,a0,a5
  a2244a:	00a066b7          	lui	a3,0xa06
  a2244e:	6b868713          	addi	a4,a3,1720 # a066b8 <g_uart_tx_state_array>
  a22452:	6b868693          	addi	a3,a3,1720
  a22456:	00f705b3          	add	a1,a4,a5
  a2245a:	4190                	lw	a2,0(a1)
  a2245c:	07b1                	addi	a5,a5,12
  a2245e:	97ba                	add	a5,a5,a4
  a22460:	0641                	addi	a2,a2,16
  a22462:	04078713          	addi	a4,a5,64
  a22466:	00e67b63          	bgeu	a2,a4,a2247c <uart_helper_move_to_next_fragment+0x3a>
  a2246a:	c190                	sw	a2,0(a1)
  a2246c:	4ca6955b          	muliadd	a0,a3,a0,76
  a22470:	251e                	lhu	a5,8(a0)
  a22472:	00051523          	sh	zero,10(a0)
  a22476:	17fd                	addi	a5,a5,-1
  a22478:	a51e                	sh	a5,8(a0)
  a2247a:	8082                	ret
  a2247c:	c19c                	sw	a5,0(a1)
  a2247e:	b7fd                	j	a2246c <uart_helper_move_to_next_fragment+0x2a>

00a22480 <uart_helper_send_next_char>:
  a22480:	8038                	push	{ra,s0-s1},-16
  a22482:	00a0 66b8 041f      	l.li	s0,0xa066b8
  a22488:	4ca4145b          	muliadd	s0,s0,a0,76
  a2248c:	4004                	lw	s1,0(s0)
  a2248e:	243e                	lhu	a5,10(s0)
  a22490:	4605                	li	a2,1
  a22492:	408c                	lw	a1,0(s1)
  a22494:	95be                	add	a1,a1,a5
  a22496:	006010ef          	jal	ra,a2349c <hal_uart_write>
  a2249a:	242a                	lhu	a0,10(s0)
  a2249c:	0505                	addi	a0,a0,1
  a2249e:	9d21                	uxth	a0
  a224a0:	a42a                	sh	a0,10(s0)
  a224a2:	44dc                	lw	a5,12(s1)
  a224a4:	00f53533          	sltu	a0,a0,a5
  a224a8:	00154513          	xori	a0,a0,1
  a224ac:	8034                	popret	{ra,s0-s1},16

00a224ae <uart_error_isr>:
  a224ae:	8148                	push	{ra,s0-s2},-32
  a224b0:	842a                	mv	s0,a0
  a224b2:	00f10613          	addi	a2,sp,15
  a224b6:	45a5                	li	a1,9
  a224b8:	00a0 6670 091f      	l.li	s2,0xa06670
  a224be:	00010723          	sb	zero,14(sp)
  a224c2:	000107a3          	sb	zero,15(sp)
  a224c6:	188914db          	muliadd	s1,s2,s0,24
  a224ca:	7f7000ef          	jal	ra,a234c0 <hal_uart_ctrl>
  a224ce:	00f14783          	lbu	a5,15(sp)
  a224d2:	cf89                	beqz	a5,a224ec <uart_error_isr+0x3e>
  a224d4:	1889145b          	muliadd	s0,s2,s0,24
  a224d8:	284e                	lhu	a1,20(s0)
  a224da:	c981                	beqz	a1,a224ea <uart_error_isr+0x3c>
  a224dc:	401c                	lw	a5,0(s0)
  a224de:	c791                	beqz	a5,a224ea <uart_error_isr+0x3c>
  a224e0:	4448                	lw	a0,12(s0)
  a224e2:	4605                	li	a2,1
  a224e4:	9782                	jalr	a5
  a224e6:	00041a23          	sh	zero,20(s0)
  a224ea:	8144                	popret	{ra,s0-s2},32
  a224ec:	00e10593          	addi	a1,sp,14
  a224f0:	4605                	li	a2,1
  a224f2:	8522                	mv	a0,s0
  a224f4:	7bb000ef          	jal	ra,a234ae <hal_uart_read>
  a224f8:	28d6                	lhu	a3,20(s1)
  a224fa:	44dc                	lw	a5,12(s1)
  a224fc:	00e14703          	lbu	a4,14(sp)
  a22500:	97b6                	add	a5,a5,a3
  a22502:	a398                	sb	a4,0(a5)
  a22504:	28ce                	lhu	a1,20(s1)
  a22506:	289e                	lhu	a5,16(s1)
  a22508:	0585                	addi	a1,a1,1
  a2250a:	9da1                	uxth	a1
  a2250c:	a8ce                	sh	a1,20(s1)
  a2250e:	00f5e963          	bltu	a1,a5,a22520 <uart_error_isr+0x72>
  a22512:	409c                	lw	a5,0(s1)
  a22514:	c781                	beqz	a5,a2251c <uart_error_isr+0x6e>
  a22516:	44c8                	lw	a0,12(s1)
  a22518:	4605                	li	a2,1
  a2251a:	9782                	jalr	a5
  a2251c:	00049a23          	sh	zero,20(s1)
  a22520:	00f10613          	addi	a2,sp,15
  a22524:	45a5                	li	a1,9
  a22526:	8522                	mv	a0,s0
  a22528:	799000ef          	jal	ra,a234c0 <hal_uart_ctrl>
  a2252c:	b74d                	j	a224ce <uart_error_isr+0x20>

00a2252e <uart_evt_callback>:
  a2252e:	8158                	push	{ra,s0-s3},-48
  a22530:	15fd                	addi	a1,a1,-1
  a22532:	0ff5f793          	andi	a5,a1,255
  a22536:	0567fabb          	bgeui	a5,5,a226e0 <uart_evt_callback+0x1b2>
  a2253a:	00a275b7          	lui	a1,0xa27
  a2253e:	da058593          	addi	a1,a1,-608 # a26da0 <g_crypto_ecc_params>
  a22542:	04f5859b          	addshf	a1,a1,a5,sll,2
  a22546:	419c                	lw	a5,0(a1)
  a22548:	842a                	mv	s0,a0
  a2254a:	8782                	jr	a5
  a2254c:	00a0 66b8 049f      	l.li	s1,0xa066b8
  a22552:	000107a3          	sb	zero,15(sp)
  a22556:	4ca494db          	muliadd	s1,s1,a0,76
  a2255a:	249e                	lhu	a5,8(s1)
  a2255c:	eb81                	bnez	a5,a2256c <uart_evt_callback+0x3e>
  a2255e:	4601                	li	a2,0
  a22560:	4589                	li	a1,2
  a22562:	8522                	mv	a0,s0
  a22564:	75d000ef          	jal	ra,a234c0 <hal_uart_ctrl>
  a22568:	4501                	li	a0,0
  a2256a:	8154                	popret	{ra,s0-s3},48
  a2256c:	00f10613          	addi	a2,sp,15
  a22570:	459d                	li	a1,7
  a22572:	8522                	mv	a0,s0
  a22574:	74d000ef          	jal	ra,a234c0 <hal_uart_ctrl>
  a22578:	00f14783          	lbu	a5,15(sp)
  a2257c:	f7f5                	bnez	a5,a22568 <uart_evt_callback+0x3a>
  a2257e:	8522                	mv	a0,s0
  a22580:	3701                	jal	ra,a22480 <uart_helper_send_next_char>
  a22582:	d56d                	beqz	a0,a2256c <uart_evt_callback+0x3e>
  a22584:	8522                	mv	a0,s0
  a22586:	3d79                	jal	ra,a22424 <uart_helper_invoke_current_fragment_callback>
  a22588:	8522                	mv	a0,s0
  a2258a:	3d65                	jal	ra,a22442 <uart_helper_move_to_next_fragment>
  a2258c:	b7f9                	j	a2255a <uart_evt_callback+0x2c>
  a2258e:	00f10613          	addi	a2,sp,15
  a22592:	45a5                	li	a1,9
  a22594:	00a0 6670 091f      	l.li	s2,0xa06670
  a2259a:	00010723          	sb	zero,14(sp)
  a2259e:	000107a3          	sb	zero,15(sp)
  a225a2:	4981                	li	s3,0
  a225a4:	71d000ef          	jal	ra,a234c0 <hal_uart_ctrl>
  a225a8:	188914db          	muliadd	s1,s2,s0,24
  a225ac:	00f14783          	lbu	a5,15(sp)
  a225b0:	c78d                	beqz	a5,a225da <uart_evt_callback+0xac>
  a225b2:	188917db          	muliadd	a5,s2,s0,24
  a225b6:	2bce                	lhu	a1,20(a5)
  a225b8:	d9c5                	beqz	a1,a22568 <uart_evt_callback+0x3a>
  a225ba:	2bf8                	lbu	a4,22(a5)
  a225bc:	8b09                	andi	a4,a4,2
  a225be:	d74d                	beqz	a4,a22568 <uart_evt_callback+0x3a>
  a225c0:	2bba                	lhu	a4,18(a5)
  a225c2:	fae9e3e3          	bltu	s3,a4,a22568 <uart_evt_callback+0x3a>
  a225c6:	4398                	lw	a4,0(a5)
  a225c8:	c701                	beqz	a4,a225d0 <uart_evt_callback+0xa2>
  a225ca:	47c8                	lw	a0,12(a5)
  a225cc:	4601                	li	a2,0
  a225ce:	9702                	jalr	a4
  a225d0:	1889145b          	muliadd	s0,s2,s0,24
  a225d4:	00041a23          	sh	zero,20(s0)
  a225d8:	bf41                	j	a22568 <uart_evt_callback+0x3a>
  a225da:	4605                	li	a2,1
  a225dc:	00e10593          	addi	a1,sp,14
  a225e0:	8522                	mv	a0,s0
  a225e2:	6cd000ef          	jal	ra,a234ae <hal_uart_read>
  a225e6:	409c                	lw	a5,0(s1)
  a225e8:	0985                	addi	s3,s3,1
  a225ea:	09c2                	slli	s3,s3,0x10
  a225ec:	0109d993          	srli	s3,s3,0x10
  a225f0:	eb81                	bnez	a5,a22600 <uart_evt_callback+0xd2>
  a225f2:	00f10613          	addi	a2,sp,15
  a225f6:	45a5                	li	a1,9
  a225f8:	8522                	mv	a0,s0
  a225fa:	6c7000ef          	jal	ra,a234c0 <hal_uart_ctrl>
  a225fe:	b77d                	j	a225ac <uart_evt_callback+0x7e>
  a22600:	28d6                	lhu	a3,20(s1)
  a22602:	44dc                	lw	a5,12(s1)
  a22604:	00e14703          	lbu	a4,14(sp)
  a22608:	97b6                	add	a5,a5,a3
  a2260a:	a398                	sb	a4,0(a5)
  a2260c:	28ce                	lhu	a1,20(s1)
  a2260e:	289e                	lhu	a5,16(s1)
  a22610:	0585                	addi	a1,a1,1
  a22612:	9da1                	uxth	a1
  a22614:	a8ce                	sh	a1,20(s1)
  a22616:	fcf5eee3          	bltu	a1,a5,a225f2 <uart_evt_callback+0xc4>
  a2261a:	409c                	lw	a5,0(s1)
  a2261c:	44c8                	lw	a0,12(s1)
  a2261e:	4601                	li	a2,0
  a22620:	9782                	jalr	a5
  a22622:	00049a23          	sh	zero,20(s1)
  a22626:	b7f1                	j	a225f2 <uart_evt_callback+0xc4>
  a22628:	00f10613          	addi	a2,sp,15
  a2262c:	45a5                	li	a1,9
  a2262e:	00a0 6670 091f      	l.li	s2,0xa06670
  a22634:	00010723          	sb	zero,14(sp)
  a22638:	000107a3          	sb	zero,15(sp)
  a2263c:	4981                	li	s3,0
  a2263e:	683000ef          	jal	ra,a234c0 <hal_uart_ctrl>
  a22642:	188914db          	muliadd	s1,s2,s0,24
  a22646:	00f14783          	lbu	a5,15(sp)
  a2264a:	cb85                	beqz	a5,a2267a <uart_evt_callback+0x14c>
  a2264c:	1889175b          	muliadd	a4,s2,s0,24
  a22650:	2b4e                	lhu	a1,20(a4)
  a22652:	f0058be3          	beqz	a1,a22568 <uart_evt_callback+0x3a>
  a22656:	2b7c                	lbu	a5,22(a4)
  a22658:	0017f693          	andi	a3,a5,1
  a2265c:	e699                	bnez	a3,a2266a <uart_evt_callback+0x13c>
  a2265e:	8b89                	andi	a5,a5,2
  a22660:	f00784e3          	beqz	a5,a22568 <uart_evt_callback+0x3a>
  a22664:	2b3e                	lhu	a5,18(a4)
  a22666:	f0f9e1e3          	bltu	s3,a5,a22568 <uart_evt_callback+0x3a>
  a2266a:	1889175b          	muliadd	a4,s2,s0,24
  a2266e:	431c                	lw	a5,0(a4)
  a22670:	d3a5                	beqz	a5,a225d0 <uart_evt_callback+0xa2>
  a22672:	4748                	lw	a0,12(a4)
  a22674:	4601                	li	a2,0
  a22676:	9782                	jalr	a5
  a22678:	bfa1                	j	a225d0 <uart_evt_callback+0xa2>
  a2267a:	4605                	li	a2,1
  a2267c:	00e10593          	addi	a1,sp,14
  a22680:	8522                	mv	a0,s0
  a22682:	62d000ef          	jal	ra,a234ae <hal_uart_read>
  a22686:	409c                	lw	a5,0(s1)
  a22688:	0985                	addi	s3,s3,1
  a2268a:	09c2                	slli	s3,s3,0x10
  a2268c:	0109d993          	srli	s3,s3,0x10
  a22690:	eb81                	bnez	a5,a226a0 <uart_evt_callback+0x172>
  a22692:	00f10613          	addi	a2,sp,15
  a22696:	45a5                	li	a1,9
  a22698:	8522                	mv	a0,s0
  a2269a:	627000ef          	jal	ra,a234c0 <hal_uart_ctrl>
  a2269e:	b765                	j	a22646 <uart_evt_callback+0x118>
  a226a0:	28d6                	lhu	a3,20(s1)
  a226a2:	44dc                	lw	a5,12(s1)
  a226a4:	00e14703          	lbu	a4,14(sp)
  a226a8:	97b6                	add	a5,a5,a3
  a226aa:	a398                	sb	a4,0(a5)
  a226ac:	28ce                	lhu	a1,20(s1)
  a226ae:	289e                	lhu	a5,16(s1)
  a226b0:	0585                	addi	a1,a1,1
  a226b2:	9da1                	uxth	a1
  a226b4:	a8ce                	sh	a1,20(s1)
  a226b6:	fcf5eee3          	bltu	a1,a5,a22692 <uart_evt_callback+0x164>
  a226ba:	409c                	lw	a5,0(s1)
  a226bc:	c781                	beqz	a5,a226c4 <uart_evt_callback+0x196>
  a226be:	44c8                	lw	a0,12(s1)
  a226c0:	4601                	li	a2,0
  a226c2:	9782                	jalr	a5
  a226c4:	00049a23          	sh	zero,20(s1)
  a226c8:	b7e9                	j	a22692 <uart_evt_callback+0x164>
  a226ca:	00a0 6670 079f      	l.li	a5,0xa06670
  a226d0:	18a797db          	muliadd	a5,a5,a0,24
  a226d4:	43dc                	lw	a5,4(a5)
  a226d6:	c781                	beqz	a5,a226de <uart_evt_callback+0x1b0>
  a226d8:	4581                	li	a1,0
  a226da:	4501                	li	a0,0
  a226dc:	9782                	jalr	a5
  a226de:	8522                	mv	a0,s0
  a226e0:	33f9                	jal	ra,a224ae <uart_error_isr>
  a226e2:	b559                	j	a22568 <uart_evt_callback+0x3a>
  a226e4:	00a0 6670 079f      	l.li	a5,0xa06670
  a226ea:	18a797db          	muliadd	a5,a5,a0,24
  a226ee:	479c                	lw	a5,8(a5)
  a226f0:	b7dd                	j	a226d6 <uart_evt_callback+0x1a8>

00a226f2 <uapi_uart_init>:
  a226f2:	8158                	push	{ra,s0-s3},-48
  a226f4:	4789                	li	a5,2
  a226f6:	0aa7ed63          	bltu	a5,a0,a227b0 <uapi_uart_init+0xbe>
  a226fa:	c9dd                	beqz	a1,a227b0 <uapi_uart_init+0xbe>
  a226fc:	0015c883          	lbu	a7,1(a1)
  a22700:	07200813          	li	a6,114
  a22704:	0b186663          	bltu	a6,a7,a227b0 <uapi_uart_init+0xbe>
  a22708:	0005c883          	lbu	a7,0(a1)
  a2270c:	0b186263          	bltu	a6,a7,a227b0 <uapi_uart_init+0xbe>
  a22710:	c245                	beqz	a2,a227b0 <uapi_uart_init+0xbe>
  a22712:	00464803          	lbu	a6,4(a2)
  a22716:	042876bb          	bgeui	a6,4,a227b0 <uapi_uart_init+0xbe>
  a2271a:	00664803          	lbu	a6,6(a2)
  a2271e:	0907e963          	bltu	a5,a6,a227b0 <uapi_uart_init+0xbe>
  a22722:	325c                	lbu	a5,5(a2)
  a22724:	0227f33b          	bgeui	a5,2,a227b0 <uapi_uart_init+0xbe>
  a22728:	00a06937          	lui	s2,0xa06
  a2272c:	66c90793          	addi	a5,s2,1644 # a0666c <g_uart_inited>
  a22730:	97aa                	add	a5,a5,a0
  a22732:	239c                	lbu	a5,0(a5)
  a22734:	84aa                	mv	s1,a0
  a22736:	66c90913          	addi	s2,s2,1644
  a2273a:	4401                	li	s0,0
  a2273c:	eba5                	bnez	a5,a227ac <uapi_uart_init+0xba>
  a2273e:	89ba                	mv	s3,a4
  a22740:	c636                	sw	a3,12(sp)
  a22742:	8432                	mv	s0,a2
  a22744:	c42e                	sw	a1,8(sp)
  a22746:	069010ef          	jal	ra,a23fae <uart_port_config_pinmux>
  a2274a:	06098763          	beqz	s3,a227b8 <uapi_uart_init+0xc6>
  a2274e:	0009a683          	lw	a3,0(s3)
  a22752:	c2bd                	beqz	a3,a227b8 <uapi_uart_init+0xc6>
  a22754:	0049a703          	lw	a4,4(s3)
  a22758:	c325                	beqz	a4,a227b8 <uapi_uart_init+0xc6>
  a2275a:	04c00513          	li	a0,76
  a2275e:	02a48533          	mul	a0,s1,a0
  a22762:	00a0 6670 071f      	l.li	a4,0xa06670
  a22768:	1897175b          	muliadd	a4,a4,s1,24
  a2276c:	c754                	sw	a3,12(a4)
  a2276e:	0049a683          	lw	a3,4(s3)
  a22772:	47b2                	lw	a5,12(sp)
  a22774:	4622                	lw	a2,8(sp)
  a22776:	ab16                	sh	a3,16(a4)
  a22778:	00a0 66b8 071f      	l.li	a4,0xa066b8
  a2277e:	86a2                	mv	a3,s0
  a22780:	00c50593          	addi	a1,a0,12
  a22784:	95ba                	add	a1,a1,a4
  a22786:	972a                	add	a4,a4,a0
  a22788:	c30c                	sw	a1,0(a4)
  a2278a:	c34c                	sw	a1,4(a4)
  a2278c:	8526                	mv	a0,s1
  a2278e:	4711                	li	a4,4
  a22790:	00a2 252e 059f      	l.li	a1,0xa2252e
  a22796:	4b7000ef          	jal	ra,a2344c <hal_uart_init>
  a2279a:	842a                	mv	s0,a0
  a2279c:	e901                	bnez	a0,a227ac <uapi_uart_init+0xba>
  a2279e:	9926                	add	s2,s2,s1
  a227a0:	4785                	li	a5,1
  a227a2:	8526                	mv	a0,s1
  a227a4:	00f90023          	sb	a5,0(s2)
  a227a8:	017010ef          	jal	ra,a23fbe <uart_port_register_irq>
  a227ac:	8522                	mv	a0,s0
  a227ae:	8154                	popret	{ra,s0-s3},48
  a227b0:	80000437          	lui	s0,0x80000
  a227b4:	0405                	addi	s0,s0,1 # 80000001 <__data_load__+0x7f5d8731>
  a227b6:	bfdd                	j	a227ac <uapi_uart_init+0xba>
  a227b8:	8000 1044 041f      	l.li	s0,0x80001044
  a227be:	b7fd                	j	a227ac <uapi_uart_init+0xba>

00a227c0 <uapi_uart_deinit>:
  a227c0:	8048                	push	{ra,s0-s2},-16
  a227c2:	031575bb          	bgeui	a0,3,a22818 <uapi_uart_deinit+0x58>
  a227c6:	00a0 666c 091f      	l.li	s2,0xa0666c
  a227cc:	992a                	add	s2,s2,a0
  a227ce:	00094783          	lbu	a5,0(s2)
  a227d2:	842a                	mv	s0,a0
  a227d4:	4481                	li	s1,0
  a227d6:	cf9d                	beqz	a5,a22814 <uapi_uart_deinit+0x54>
  a227d8:	4b3000ef          	jal	ra,a2348a <hal_uart_deinit>
  a227dc:	84aa                	mv	s1,a0
  a227de:	8522                	mv	a0,s0
  a227e0:	7e0010ef          	jal	ra,a23fc0 <uart_port_unregister_irq>
  a227e4:	00a0 6670 051f      	l.li	a0,0xa06670
  a227ea:	46e1                	li	a3,24
  a227ec:	4601                	li	a2,0
  a227ee:	45e1                	li	a1,24
  a227f0:	1885155b          	muliadd	a0,a0,s0,24
  a227f4:	4b3020ef          	jal	ra,a254a6 <memset_s>
  a227f8:	00a0 66b8 051f      	l.li	a0,0xa066b8
  a227fe:	04c00693          	li	a3,76
  a22802:	4601                	li	a2,0
  a22804:	04c00593          	li	a1,76
  a22808:	4c85155b          	muliadd	a0,a0,s0,76
  a2280c:	49b020ef          	jal	ra,a254a6 <memset_s>
  a22810:	00090023          	sb	zero,0(s2)
  a22814:	8526                	mv	a0,s1
  a22816:	8044                	popret	{ra,s0-s2},16
  a22818:	800004b7          	lui	s1,0x80000
  a2281c:	0485                	addi	s1,s1,1 # 80000001 <__data_load__+0x7f5d8731>
  a2281e:	bfdd                	j	a22814 <uapi_uart_deinit+0x54>

00a22820 <uapi_uart_write>:
  a22820:	8178                	push	{ra,s0-s5},-48
  a22822:	000107a3          	sb	zero,15(sp)
  a22826:	0315773b          	bgeui	a0,3,a22882 <uapi_uart_write+0x62>
  a2282a:	cda1                	beqz	a1,a22882 <uapi_uart_write+0x62>
  a2282c:	ca39                	beqz	a2,a22882 <uapi_uart_write+0x62>
  a2282e:	00a0 666c 079f      	l.li	a5,0xa0666c
  a22834:	97aa                	add	a5,a5,a0
  a22836:	239c                	lbu	a5,0(a5)
  a22838:	84aa                	mv	s1,a0
  a2283a:	cba1                	beqz	a5,a2288a <uapi_uart_write+0x6a>
  a2283c:	89ae                	mv	s3,a1
  a2283e:	8932                	mv	s2,a2
  a22840:	7e8010ef          	jal	ra,a24028 <uart_porting_lock>
  a22844:	8aaa                	mv	s5,a0
  a22846:	994e                	add	s2,s2,s3
  a22848:	8a4e                	mv	s4,s3
  a2284a:	413a0433          	sub	s0,s4,s3
  a2284e:	012a1863          	bne	s4,s2,a2285e <uapi_uart_write+0x3e>
  a22852:	85d6                	mv	a1,s5
  a22854:	8526                	mv	a0,s1
  a22856:	7d6010ef          	jal	ra,a2402c <uart_porting_unlock>
  a2285a:	8522                	mv	a0,s0
  a2285c:	8174                	popret	{ra,s0-s5},48
  a2285e:	00f10613          	addi	a2,sp,15
  a22862:	459d                	li	a1,7
  a22864:	8526                	mv	a0,s1
  a22866:	45b000ef          	jal	ra,a234c0 <hal_uart_ctrl>
  a2286a:	00f14783          	lbu	a5,15(sp)
  a2286e:	f3e5                	bnez	a5,a2284e <uapi_uart_write+0x2e>
  a22870:	85d2                	mv	a1,s4
  a22872:	001a0413          	addi	s0,s4,1
  a22876:	4605                	li	a2,1
  a22878:	8526                	mv	a0,s1
  a2287a:	423000ef          	jal	ra,a2349c <hal_uart_write>
  a2287e:	8a22                	mv	s4,s0
  a22880:	b7e9                	j	a2284a <uapi_uart_write+0x2a>
  a22882:	80000437          	lui	s0,0x80000
  a22886:	0405                	addi	s0,s0,1 # 80000001 <__data_load__+0x7f5d8731>
  a22888:	bfc9                	j	a2285a <uapi_uart_write+0x3a>
  a2288a:	8000 1040 041f      	l.li	s0,0x80001040
  a22890:	b7e9                	j	a2285a <uapi_uart_write+0x3a>

00a22892 <uapi_uart_read>:
  a22892:	8178                	push	{ra,s0-s5},-48
  a22894:	0315783b          	bgeui	a0,3,a228f4 <uapi_uart_read+0x62>
  a22898:	cdb1                	beqz	a1,a228f4 <uapi_uart_read+0x62>
  a2289a:	ce29                	beqz	a2,a228f4 <uapi_uart_read+0x62>
  a2289c:	00a0 666c 079f      	l.li	a5,0xa0666c
  a228a2:	97aa                	add	a5,a5,a0
  a228a4:	239c                	lbu	a5,0(a5)
  a228a6:	84aa                	mv	s1,a0
  a228a8:	cbb1                	beqz	a5,a228fc <uapi_uart_read+0x6a>
  a228aa:	89ae                	mv	s3,a1
  a228ac:	8932                	mv	s2,a2
  a228ae:	000107a3          	sb	zero,15(sp)
  a228b2:	776010ef          	jal	ra,a24028 <uart_porting_lock>
  a228b6:	8aaa                	mv	s5,a0
  a228b8:	994e                	add	s2,s2,s3
  a228ba:	8a4e                	mv	s4,s3
  a228bc:	413a0433          	sub	s0,s4,s3
  a228c0:	01491863          	bne	s2,s4,a228d0 <uapi_uart_read+0x3e>
  a228c4:	85d6                	mv	a1,s5
  a228c6:	8526                	mv	a0,s1
  a228c8:	764010ef          	jal	ra,a2402c <uart_porting_unlock>
  a228cc:	8522                	mv	a0,s0
  a228ce:	8174                	popret	{ra,s0-s5},48
  a228d0:	00f10613          	addi	a2,sp,15
  a228d4:	45a5                	li	a1,9
  a228d6:	8526                	mv	a0,s1
  a228d8:	3e9000ef          	jal	ra,a234c0 <hal_uart_ctrl>
  a228dc:	00f14783          	lbu	a5,15(sp)
  a228e0:	f3e5                	bnez	a5,a228c0 <uapi_uart_read+0x2e>
  a228e2:	85d2                	mv	a1,s4
  a228e4:	001a0413          	addi	s0,s4,1
  a228e8:	4605                	li	a2,1
  a228ea:	8526                	mv	a0,s1
  a228ec:	3c3000ef          	jal	ra,a234ae <hal_uart_read>
  a228f0:	8a22                	mv	s4,s0
  a228f2:	b7e9                	j	a228bc <uapi_uart_read+0x2a>
  a228f4:	80000437          	lui	s0,0x80000
  a228f8:	0405                	addi	s0,s0,1 # 80000001 <__data_load__+0x7f5d8731>
  a228fa:	bfc9                	j	a228cc <uapi_uart_read+0x3a>
  a228fc:	8000 1040 041f      	l.li	s0,0x80001040
  a22902:	b7e9                	j	a228cc <uapi_uart_read+0x3a>

00a22904 <uapi_uart_rx_fifo_is_empty>:
  a22904:	03057a3b          	bgeui	a0,3,a2292c <uapi_uart_rx_fifo_is_empty+0x28>
  a22908:	00a0 666c 079f      	l.li	a5,0xa0666c
  a2290e:	97aa                	add	a5,a5,a0
  a22910:	239c                	lbu	a5,0(a5)
  a22912:	cf91                	beqz	a5,a2292e <uapi_uart_rx_fifo_is_empty+0x2a>
  a22914:	8118                	push	{ra},-32
  a22916:	00f10613          	addi	a2,sp,15
  a2291a:	45a5                	li	a1,9
  a2291c:	000107a3          	sb	zero,15(sp)
  a22920:	3a1000ef          	jal	ra,a234c0 <hal_uart_ctrl>
  a22924:	00f14783          	lbu	a5,15(sp)
  a22928:	853e                	mv	a0,a5
  a2292a:	8114                	popret	{ra},32
  a2292c:	4781                	li	a5,0
  a2292e:	853e                	mv	a0,a5
  a22930:	8082                	ret

00a22932 <uapi_watchdog_init>:
  a22932:	8058                	push	{ra,s0-s3},-32
  a22934:	89aa                	mv	s3,a0
  a22936:	732010ef          	jal	ra,a24068 <watchdog_port_register_hal_funcs>
  a2293a:	73e010ef          	jal	ra,a24078 <watchdog_port_register_irq>
  a2293e:	f50ff0ef          	jal	ra,a2208e <osal_irq_lock>
  a22942:	84aa                	mv	s1,a0
  a22944:	7c5000ef          	jal	ra,a23908 <hal_watchdog_get_funcs>
  a22948:	411c                	lw	a5,0(a0)
  a2294a:	00a0 679c 091f      	l.li	s2,0xa0679c
  a22950:	00a92023          	sw	a0,0(s2)
  a22954:	9782                	jalr	a5
  a22956:	c519                	beqz	a0,a22964 <uapi_watchdog_init+0x32>
  a22958:	842a                	mv	s0,a0
  a2295a:	8526                	mv	a0,s1
  a2295c:	f3aff0ef          	jal	ra,a22096 <osal_irq_restore>
  a22960:	8522                	mv	a0,s0
  a22962:	8054                	popret	{ra,s0-s3},32
  a22964:	00092783          	lw	a5,0(s2)
  a22968:	854e                	mv	a0,s3
  a2296a:	479c                	lw	a5,8(a5)
  a2296c:	9782                	jalr	a5
  a2296e:	842a                	mv	s0,a0
  a22970:	8526                	mv	a0,s1
  a22972:	f24ff0ef          	jal	ra,a22096 <osal_irq_restore>
  a22976:	f46d                	bnez	s0,a22960 <uapi_watchdog_init+0x2e>
  a22978:	00a0 67a1 079f      	l.li	a5,0xa067a1
  a2297e:	4705                	li	a4,1
  a22980:	a398                	sb	a4,0(a5)
  a22982:	bff9                	j	a22960 <uapi_watchdog_init+0x2e>

00a22984 <uapi_watchdog_enable>:
  a22984:	00a0 67a1 079f      	l.li	a5,0xa067a1
  a2298a:	239c                	lbu	a5,0(a5)
  a2298c:	cb9d                	beqz	a5,a229c2 <uapi_watchdog_enable+0x3e>
  a2298e:	8048                	push	{ra,s0-s2},-16
  a22990:	4485                	li	s1,1
  a22992:	57fd                	li	a5,-1
  a22994:	02a4e563          	bltu	s1,a0,a229be <uapi_watchdog_enable+0x3a>
  a22998:	842a                	mv	s0,a0
  a2299a:	ef4ff0ef          	jal	ra,a2208e <osal_irq_lock>
  a2299e:	00a0 679c 079f      	l.li	a5,0xa0679c
  a229a4:	439c                	lw	a5,0(a5)
  a229a6:	892a                	mv	s2,a0
  a229a8:	8522                	mv	a0,s0
  a229aa:	4b9c                	lw	a5,16(a5)
  a229ac:	9782                	jalr	a5
  a229ae:	854a                	mv	a0,s2
  a229b0:	ee6ff0ef          	jal	ra,a22096 <osal_irq_restore>
  a229b4:	00a0 67a0 079f      	l.li	a5,0xa067a0
  a229ba:	a384                	sb	s1,0(a5)
  a229bc:	4781                	li	a5,0
  a229be:	853e                	mv	a0,a5
  a229c0:	8044                	popret	{ra,s0-s2},16
  a229c2:	57fd                	li	a5,-1
  a229c4:	853e                	mv	a0,a5
  a229c6:	8082                	ret

00a229c8 <uapi_watchdog_disable>:
  a229c8:	00a0 67a1 079f      	l.li	a5,0xa067a1
  a229ce:	239c                	lbu	a5,0(a5)
  a229d0:	e399                	bnez	a5,a229d6 <uapi_watchdog_disable+0xe>
  a229d2:	557d                	li	a0,-1
  a229d4:	8082                	ret
  a229d6:	8118                	push	{ra},-32
  a229d8:	eb6ff0ef          	jal	ra,a2208e <osal_irq_lock>
  a229dc:	00a0 679c 079f      	l.li	a5,0xa0679c
  a229e2:	439c                	lw	a5,0(a5)
  a229e4:	c62a                	sw	a0,12(sp)
  a229e6:	4bdc                	lw	a5,20(a5)
  a229e8:	9782                	jalr	a5
  a229ea:	4532                	lw	a0,12(sp)
  a229ec:	eaaff0ef          	jal	ra,a22096 <osal_irq_restore>
  a229f0:	00a0 67a0 079f      	l.li	a5,0xa067a0
  a229f6:	00078023          	sb	zero,0(a5)
  a229fa:	4501                	li	a0,0
  a229fc:	8114                	popret	{ra},32

00a229fe <uapi_watchdog_deinit>:
  a229fe:	00a067b7          	lui	a5,0xa06
  a22a02:	7a17c703          	lbu	a4,1953(a5) # a067a1 <g_watchdog_inited>
  a22a06:	c71d                	beqz	a4,a22a34 <uapi_watchdog_deinit+0x36>
  a22a08:	8028                	push	{ra,s0},-16
  a22a0a:	7a178413          	addi	s0,a5,1953
  a22a0e:	00a0 67a0 079f      	l.li	a5,0xa067a0
  a22a14:	239c                	lbu	a5,0(a5)
  a22a16:	c391                	beqz	a5,a22a1a <uapi_watchdog_deinit+0x1c>
  a22a18:	3f45                	jal	ra,a229c8 <uapi_watchdog_disable>
  a22a1a:	00a0 679c 079f      	l.li	a5,0xa0679c
  a22a20:	439c                	lw	a5,0(a5)
  a22a22:	c399                	beqz	a5,a22a28 <uapi_watchdog_deinit+0x2a>
  a22a24:	43dc                	lw	a5,4(a5)
  a22a26:	9782                	jalr	a5
  a22a28:	64c010ef          	jal	ra,a24074 <watchdog_port_unregister_hal_funcs>
  a22a2c:	4501                	li	a0,0
  a22a2e:	00040023          	sb	zero,0(s0)
  a22a32:	8024                	popret	{ra,s0},16
  a22a34:	4501                	li	a0,0
  a22a36:	8082                	ret

00a22a38 <uapi_watchdog_kick>:
  a22a38:	00a0 67a0 079f      	l.li	a5,0xa067a0
  a22a3e:	239c                	lbu	a5,0(a5)
  a22a40:	e399                	bnez	a5,a22a46 <uapi_watchdog_kick+0xe>
  a22a42:	557d                	li	a0,-1
  a22a44:	8082                	ret
  a22a46:	8118                	push	{ra},-32
  a22a48:	e46ff0ef          	jal	ra,a2208e <osal_irq_lock>
  a22a4c:	00a0 679c 079f      	l.li	a5,0xa0679c
  a22a52:	439c                	lw	a5,0(a5)
  a22a54:	c62a                	sw	a0,12(sp)
  a22a56:	4f9c                	lw	a5,24(a5)
  a22a58:	9782                	jalr	a5
  a22a5a:	4532                	lw	a0,12(sp)
  a22a5c:	e3aff0ef          	jal	ra,a22096 <osal_irq_restore>
  a22a60:	4501                	li	a0,0
  a22a62:	8114                	popret	{ra},32

00a22a64 <uapi_efuse_init>:
  a22a64:	8018                	push	{ra},-16
  a22a66:	613010ef          	jal	ra,a24878 <efuse_port_register_hal_funcs>
  a22a6a:	22a9                	jal	ra,a22bb4 <hal_efuse_get_funcs>
  a22a6c:	00052303          	lw	t1,0(a0)
  a22a70:	8010                	pop	{ra},16
  a22a72:	8302                	jr	t1

00a22a74 <uapi_efuse_read_bit>:
  a22a74:	8168                	push	{ra,s0-s4},-48
  a22a76:	000107a3          	sb	zero,15(sp)
  a22a7a:	547d                	li	s0,-1
  a22a7c:	0ff00793          	li	a5,255
  a22a80:	02b7ee63          	bltu	a5,a1,a22abc <uapi_efuse_read_bit+0x48>
  a22a84:	cd05                	beqz	a0,a22abc <uapi_efuse_read_bit+0x48>
  a22a86:	08067dbb          	bgeui	a2,8,a22abc <uapi_efuse_read_bit+0x48>
  a22a8a:	842e                	mv	s0,a1
  a22a8c:	8932                	mv	s2,a2
  a22a8e:	84aa                	mv	s1,a0
  a22a90:	2215                	jal	ra,a22bb4 <hal_efuse_get_funcs>
  a22a92:	8a2a                	mv	s4,a0
  a22a94:	dfaff0ef          	jal	ra,a2208e <osal_irq_lock>
  a22a98:	010a2783          	lw	a5,16(s4)
  a22a9c:	89aa                	mv	s3,a0
  a22a9e:	00f10593          	addi	a1,sp,15
  a22aa2:	8522                	mv	a0,s0
  a22aa4:	9782                	jalr	a5
  a22aa6:	842a                	mv	s0,a0
  a22aa8:	ed01                	bnez	a0,a22ac0 <uapi_efuse_read_bit+0x4c>
  a22aaa:	00f14783          	lbu	a5,15(sp)
  a22aae:	854e                	mv	a0,s3
  a22ab0:	4127d633          	sra	a2,a5,s2
  a22ab4:	8a05                	andi	a2,a2,1
  a22ab6:	a090                	sb	a2,0(s1)
  a22ab8:	ddeff0ef          	jal	ra,a22096 <osal_irq_restore>
  a22abc:	8522                	mv	a0,s0
  a22abe:	8164                	popret	{ra,s0-s4},48
  a22ac0:	854e                	mv	a0,s3
  a22ac2:	dd4ff0ef          	jal	ra,a22096 <osal_irq_restore>
  a22ac6:	547d                	li	s0,-1
  a22ac8:	bfd5                	j	a22abc <uapi_efuse_read_bit+0x48>

00a22aca <uapi_efuse_read_buffer>:
  a22aca:	8088                	push	{ra,s0-s6},-32
  a22acc:	547d                	li	s0,-1
  a22ace:	c231                	beqz	a2,a22b12 <uapi_efuse_read_buffer+0x48>
  a22ad0:	0ff00793          	li	a5,255
  a22ad4:	02b7ef63          	bltu	a5,a1,a22b12 <uapi_efuse_read_buffer+0x48>
  a22ad8:	00c587b3          	add	a5,a1,a2
  a22adc:	10000713          	li	a4,256
  a22ae0:	02f76963          	bltu	a4,a5,a22b12 <uapi_efuse_read_buffer+0x48>
  a22ae4:	c51d                	beqz	a0,a22b12 <uapi_efuse_read_buffer+0x48>
  a22ae6:	8932                	mv	s2,a2
  a22ae8:	89ae                	mv	s3,a1
  a22aea:	8a2a                	mv	s4,a0
  a22aec:	20e1                	jal	ra,a22bb4 <hal_efuse_get_funcs>
  a22aee:	8b2a                	mv	s6,a0
  a22af0:	d9eff0ef          	jal	ra,a2208e <osal_irq_lock>
  a22af4:	8aaa                	mv	s5,a0
  a22af6:	4481                	li	s1,0
  a22af8:	010b2783          	lw	a5,16(s6) # 2010 <ccause+0x104e>
  a22afc:	009a05b3          	add	a1,s4,s1
  a22b00:	00998533          	add	a0,s3,s1
  a22b04:	9782                	jalr	a5
  a22b06:	842a                	mv	s0,a0
  a22b08:	c519                	beqz	a0,a22b16 <uapi_efuse_read_buffer+0x4c>
  a22b0a:	8556                	mv	a0,s5
  a22b0c:	d8aff0ef          	jal	ra,a22096 <osal_irq_restore>
  a22b10:	547d                	li	s0,-1
  a22b12:	8522                	mv	a0,s0
  a22b14:	8084                	popret	{ra,s0-s6},32
  a22b16:	0485                	addi	s1,s1,1
  a22b18:	ff24e0e3          	bltu	s1,s2,a22af8 <uapi_efuse_read_buffer+0x2e>
  a22b1c:	8556                	mv	a0,s5
  a22b1e:	d78ff0ef          	jal	ra,a22096 <osal_irq_restore>
  a22b22:	bfc5                	j	a22b12 <uapi_efuse_read_buffer+0x48>

00a22b24 <uapi_efuse_write_bit>:
  a22b24:	8168                	push	{ra,s0-s4},-48
  a22b26:	547d                	li	s0,-1
  a22b28:	0ff00793          	li	a5,255
  a22b2c:	04a7e463          	bltu	a5,a0,a22b74 <uapi_efuse_write_bit+0x50>
  a22b30:	0815f13b          	bgeui	a1,8,a22b74 <uapi_efuse_write_bit+0x50>
  a22b34:	892e                	mv	s2,a1
  a22b36:	84aa                	mv	s1,a0
  a22b38:	000107a3          	sb	zero,15(sp)
  a22b3c:	28a5                	jal	ra,a22bb4 <hal_efuse_get_funcs>
  a22b3e:	8a2a                	mv	s4,a0
  a22b40:	d4eff0ef          	jal	ra,a2208e <osal_irq_lock>
  a22b44:	010a2783          	lw	a5,16(s4)
  a22b48:	89aa                	mv	s3,a0
  a22b4a:	00f10593          	addi	a1,sp,15
  a22b4e:	8526                	mv	a0,s1
  a22b50:	9782                	jalr	a5
  a22b52:	c509                	beqz	a0,a22b5c <uapi_efuse_write_bit+0x38>
  a22b54:	854e                	mv	a0,s3
  a22b56:	d40ff0ef          	jal	ra,a22096 <osal_irq_restore>
  a22b5a:	a829                	j	a22b74 <uapi_efuse_write_bit+0x50>
  a22b5c:	00f14783          	lbu	a5,15(sp)
  a22b60:	0127d7b3          	srl	a5,a5,s2
  a22b64:	8b85                	andi	a5,a5,1
  a22b66:	cb89                	beqz	a5,a22b78 <uapi_efuse_write_bit+0x54>
  a22b68:	854e                	mv	a0,s3
  a22b6a:	80000437          	lui	s0,0x80000
  a22b6e:	d28ff0ef          	jal	ra,a22096 <osal_irq_restore>
  a22b72:	0405                	addi	s0,s0,1 # 80000001 <__data_load__+0x7f5d8731>
  a22b74:	8522                	mv	a0,s0
  a22b76:	8164                	popret	{ra,s0-s4},48
  a22b78:	8526                	mv	a0,s1
  a22b7a:	50b010ef          	jal	ra,a24884 <hal_efuse_get_region>
  a22b7e:	4585                	li	a1,1
  a22b80:	01ca2783          	lw	a5,28(s4)
  a22b84:	012595b3          	sll	a1,a1,s2
  a22b88:	862a                	mv	a2,a0
  a22b8a:	9d81                	uxtb	a1
  a22b8c:	8526                	mv	a0,s1
  a22b8e:	9782                	jalr	a5
  a22b90:	842a                	mv	s0,a0
  a22b92:	854e                	mv	a0,s3
  a22b94:	d069                	beqz	s0,a22b56 <uapi_efuse_write_bit+0x32>
  a22b96:	d00ff0ef          	jal	ra,a22096 <osal_irq_restore>
  a22b9a:	547d                	li	s0,-1
  a22b9c:	bfe1                	j	a22b74 <uapi_efuse_write_bit+0x50>

00a22b9e <hal_efuse_register_funcs>:
  a22b9e:	c519                	beqz	a0,a22bac <hal_efuse_register_funcs+0xe>
  a22ba0:	00a0 67a4 079f      	l.li	a5,0xa067a4
  a22ba6:	c388                	sw	a0,0(a5)
  a22ba8:	4501                	li	a0,0
  a22baa:	8082                	ret
  a22bac:	80000537          	lui	a0,0x80000
  a22bb0:	0505                	addi	a0,a0,1 # 80000001 <__data_load__+0x7f5d8731>
  a22bb2:	8082                	ret

00a22bb4 <hal_efuse_get_funcs>:
  a22bb4:	00a0 67a4 079f      	l.li	a5,0xa067a4
  a22bba:	4388                	lw	a0,0(a5)
  a22bbc:	8082                	ret

00a22bbe <hal_efuse_deinit>:
  a22bbe:	00a0 67a8 079f      	l.li	a5,0xa067a8
  a22bc4:	00078023          	sb	zero,0(a5)
  a22bc8:	8082                	ret

00a22bca <hal_efuse_get_writeread_addr>:
  a22bca:	8038                	push	{ra,s0-s1},-16
  a22bcc:	84aa                	mv	s1,a0
  a22bce:	4b7010ef          	jal	ra,a24884 <hal_efuse_get_region>
  a22bd2:	842a                	mv	s0,a0
  a22bd4:	8526                	mv	a0,s1
  a22bd6:	4b5010ef          	jal	ra,a2488a <hal_efuse_get_byte_offset>
  a22bda:	00a0 2490 079f      	l.li	a5,0xa02490
  a22be0:	0487879b          	addshf	a5,a5,s0,sll,2
  a22be4:	439c                	lw	a5,0(a5)
  a22be6:	8105                	srli	a0,a0,0x1
  a22be8:	9d21                	uxth	a0
  a22bea:	04a7851b          	addshf	a0,a5,a0,sll,2
  a22bee:	8034                	popret	{ra,s0-s1},16

00a22bf0 <hal_efuse_init>:
  a22bf0:	8018                	push	{ra},-16
  a22bf2:	4501                	li	a0,0
  a22bf4:	2255                	jal	ra,a22d98 <hal_efuse_regs_init>
  a22bf6:	00a067b7          	lui	a5,0xa06
  a22bfa:	7b07a703          	lw	a4,1968(a5) # a067b0 <g_efuse_regs>
  a22bfe:	00a0 2400 069f      	l.li	a3,0xa02400
  a22c04:	2294                	lbu	a3,0(a3)
  a22c06:	435c                	lw	a5,4(a4)
  a22c08:	4501                	li	a0,0
  a22c0a:	f007f793          	andi	a5,a5,-256
  a22c0e:	8fd5                	or	a5,a5,a3
  a22c10:	c35c                	sw	a5,4(a4)
  a22c12:	00a0 67a8 079f      	l.li	a5,0xa067a8
  a22c18:	4705                	li	a4,1
  a22c1a:	a398                	sb	a4,0(a5)
  a22c1c:	8014                	popret	{ra},16

00a22c1e <hal_efuse_read_byte>:
  a22c1e:	00a0 67a8 079f      	l.li	a5,0xa067a8
  a22c24:	239c                	lbu	a5,0(a5)
  a22c26:	c7a1                	beqz	a5,a22c6e <hal_efuse_read_byte+0x50>
  a22c28:	8048                	push	{ra,s0-s2},-16
  a22c2a:	842a                	mv	s0,a0
  a22c2c:	0ff00793          	li	a5,255
  a22c30:	04a7e363          	bltu	a5,a0,a22c76 <hal_efuse_read_byte+0x58>
  a22c34:	c1a9                	beqz	a1,a22c76 <hal_efuse_read_byte+0x58>
  a22c36:	84ae                	mv	s1,a1
  a22c38:	3f49                	jal	ra,a22bca <hal_efuse_get_writeread_addr>
  a22c3a:	892a                	mv	s2,a0
  a22c3c:	8522                	mv	a0,s0
  a22c3e:	447010ef          	jal	ra,a24884 <hal_efuse_get_region>
  a22c42:	00a0 67b0 079f      	l.li	a5,0xa067b0
  a22c48:	04a7851b          	addshf	a0,a5,a0,sll,2
  a22c4c:	4118                	lw	a4,0(a0)
  a22c4e:	76c1                	lui	a3,0xffff0
  a22c50:	8805                	andi	s0,s0,1
  a22c52:	431c                	lw	a5,0(a4)
  a22c54:	8ff5                	and	a5,a5,a3
  a22c56:	0000 5a5a 069f      	l.li	a3,0x5a5a
  a22c5c:	8fd5                	or	a5,a5,a3
  a22c5e:	c31c                	sw	a5,0(a4)
  a22c60:	00092783          	lw	a5,0(s2)
  a22c64:	c011                	beqz	s0,a22c68 <hal_efuse_read_byte+0x4a>
  a22c66:	83a1                	srli	a5,a5,0x8
  a22c68:	a09c                	sb	a5,0(s1)
  a22c6a:	4501                	li	a0,0
  a22c6c:	8044                	popret	{ra,s0-s2},16
  a22c6e:	8000 1391 051f      	l.li	a0,0x80001391
  a22c74:	8082                	ret
  a22c76:	80000537          	lui	a0,0x80000
  a22c7a:	0505                	addi	a0,a0,1 # 80000001 <__data_load__+0x7f5d8731>
  a22c7c:	bfc5                	j	a22c6c <hal_efuse_read_byte+0x4e>

00a22c7e <hal_efuse_get_die_id>:
  a22c7e:	00a0 67a8 079f      	l.li	a5,0xa067a8
  a22c84:	239c                	lbu	a5,0(a5)
  a22c86:	ef99                	bnez	a5,a22ca4 <hal_efuse_get_die_id+0x26>
  a22c88:	8000 1391 051f      	l.li	a0,0x80001391
  a22c8e:	8082                	ret
  a22c90:	008905b3          	add	a1,s2,s0
  a22c94:	8522                	mv	a0,s0
  a22c96:	3761                	jal	ra,a22c1e <hal_efuse_read_byte>
  a22c98:	e919                	bnez	a0,a22cae <hal_efuse_get_die_id+0x30>
  a22c9a:	0405                	addi	s0,s0,1
  a22c9c:	fe946ae3          	bltu	s0,s1,a22c90 <hal_efuse_get_die_id+0x12>
  a22ca0:	4501                	li	a0,0
  a22ca2:	8044                	popret	{ra,s0-s2},16
  a22ca4:	8048                	push	{ra,s0-s2},-16
  a22ca6:	892a                	mv	s2,a0
  a22ca8:	84ae                	mv	s1,a1
  a22caa:	4401                	li	s0,0
  a22cac:	bfc5                	j	a22c9c <hal_efuse_get_die_id+0x1e>
  a22cae:	557d                	li	a0,-1
  a22cb0:	bfcd                	j	a22ca2 <hal_efuse_get_die_id+0x24>

00a22cb2 <hal_efuse_write_operation>:
  a22cb2:	00a0 67a8 079f      	l.li	a5,0xa067a8
  a22cb8:	239c                	lbu	a5,0(a5)
  a22cba:	c3c1                	beqz	a5,a22d3a <hal_efuse_write_operation+0x88>
  a22cbc:	8058                	push	{ra,s0-s3},-32
  a22cbe:	842a                	mv	s0,a0
  a22cc0:	0ff00793          	li	a5,255
  a22cc4:	06a7ef63          	bltu	a5,a0,a22d42 <hal_efuse_write_operation+0x90>
  a22cc8:	00a064b7          	lui	s1,0xa06
  a22ccc:	892e                	mv	s2,a1
  a22cce:	7b048993          	addi	s3,s1,1968 # a067b0 <g_efuse_regs>
  a22cd2:	3b3010ef          	jal	ra,a24884 <hal_efuse_get_region>
  a22cd6:	04a9851b          	addshf	a0,s3,a0,sll,2
  a22cda:	4118                	lw	a4,0(a0)
  a22cdc:	76c1                	lui	a3,0xffff0
  a22cde:	8522                	mv	a0,s0
  a22ce0:	431c                	lw	a5,0(a4)
  a22ce2:	7b048493          	addi	s1,s1,1968
  a22ce6:	8ff5                	and	a5,a5,a3
  a22ce8:	0000 a5a5 069f      	l.li	a3,0xa5a5
  a22cee:	8fd5                	or	a5,a5,a3
  a22cf0:	c31c                	sw	a5,0(a4)
  a22cf2:	393010ef          	jal	ra,a24884 <hal_efuse_get_region>
  a22cf6:	04a9851b          	addshf	a0,s3,a0,sll,2
  a22cfa:	4118                	lw	a4,0(a0)
  a22cfc:	06400513          	li	a0,100
  a22d00:	475c                	lw	a5,12(a4)
  a22d02:	0017e793          	ori	a5,a5,1
  a22d06:	c75c                	sw	a5,12(a4)
  a22d08:	edeff0ef          	jal	ra,a223e6 <uapi_tcxo_delay_us>
  a22d0c:	8522                	mv	a0,s0
  a22d0e:	3d75                	jal	ra,a22bca <hal_efuse_get_writeread_addr>
  a22d10:	00147793          	andi	a5,s0,1
  a22d14:	c391                	beqz	a5,a22d18 <hal_efuse_write_operation+0x66>
  a22d16:	0922                	slli	s2,s2,0x8
  a22d18:	01252023          	sw	s2,0(a0)
  a22d1c:	8522                	mv	a0,s0
  a22d1e:	367010ef          	jal	ra,a24884 <hal_efuse_get_region>
  a22d22:	04a4849b          	addshf	s1,s1,a0,sll,2
  a22d26:	4098                	lw	a4,0(s1)
  a22d28:	06400513          	li	a0,100
  a22d2c:	475c                	lw	a5,12(a4)
  a22d2e:	9bf9                	andi	a5,a5,-2
  a22d30:	c75c                	sw	a5,12(a4)
  a22d32:	eb4ff0ef          	jal	ra,a223e6 <uapi_tcxo_delay_us>
  a22d36:	4501                	li	a0,0
  a22d38:	8054                	popret	{ra,s0-s3},32
  a22d3a:	8000 1391 051f      	l.li	a0,0x80001391
  a22d40:	8082                	ret
  a22d42:	80000537          	lui	a0,0x80000
  a22d46:	0505                	addi	a0,a0,1 # 80000001 <__data_load__+0x7f5d8731>
  a22d48:	bfc5                	j	a22d38 <hal_efuse_write_operation+0x86>

00a22d4a <hal_efuse_write_buffer_operation>:
  a22d4a:	00a0 67a8 079f      	l.li	a5,0xa067a8
  a22d50:	239c                	lbu	a5,0(a5)
  a22d52:	c795                	beqz	a5,a22d7e <hal_efuse_write_buffer_operation+0x34>
  a22d54:	8058                	push	{ra,s0-s3},-32
  a22d56:	89b2                	mv	s3,a2
  a22d58:	842e                	mv	s0,a1
  a22d5a:	84ae                	mv	s1,a1
  a22d5c:	40b50933          	sub	s2,a0,a1
  a22d60:	408487b3          	sub	a5,s1,s0
  a22d64:	0137e463          	bltu	a5,s3,a22d6c <hal_efuse_write_buffer_operation+0x22>
  a22d68:	4501                	li	a0,0
  a22d6a:	8054                	popret	{ra,s0-s3},32
  a22d6c:	208c                	lbu	a1,0(s1)
  a22d6e:	00990533          	add	a0,s2,s1
  a22d72:	4601                	li	a2,0
  a22d74:	3f3d                	jal	ra,a22cb2 <hal_efuse_write_operation>
  a22d76:	0485                	addi	s1,s1,1
  a22d78:	d565                	beqz	a0,a22d60 <hal_efuse_write_buffer_operation+0x16>
  a22d7a:	557d                	li	a0,-1
  a22d7c:	b7fd                	j	a22d6a <hal_efuse_write_buffer_operation+0x20>
  a22d7e:	8000 1391 051f      	l.li	a0,0x80001391
  a22d84:	8082                	ret

00a22d86 <hal_efuse_set_clock_period>:
  a22d86:	00a0 2400 079f      	l.li	a5,0xa02400
  a22d8c:	c388                	sw	a0,0(a5)
  a22d8e:	8082                	ret

00a22d90 <hal_efuse_funcs_get>:
  a22d90:	00a0 2404 051f      	l.li	a0,0xa02404
  a22d96:	8082                	ret

00a22d98 <hal_efuse_regs_init>:
  a22d98:	02a04763          	bgtz	a0,a22dc6 <hal_efuse_regs_init+0x2e>
  a22d9c:	050a                	slli	a0,a0,0x2
  a22d9e:	00a0 2488 071f      	l.li	a4,0xa02488
  a22da4:	00a0 67b0 079f      	l.li	a5,0xa067b0
  a22daa:	97aa                	add	a5,a5,a0
  a22dac:	953a                	add	a0,a0,a4
  a22dae:	4118                	lw	a4,0(a0)
  a22db0:	4501                	li	a0,0
  a22db2:	c398                	sw	a4,0(a5)
  a22db4:	00a027b7          	lui	a5,0xa02
  a22db8:	48c7a703          	lw	a4,1164(a5) # a0248c <g_efuse_boot_done_addr>
  a22dbc:	00a0 67ac 079f      	l.li	a5,0xa067ac
  a22dc2:	c398                	sw	a4,0(a5)
  a22dc4:	8082                	ret
  a22dc6:	557d                	li	a0,-1
  a22dc8:	8082                	ret

00a22dca <hal_reboot_chip>:
  a22dca:	8018                	push	{ra},-16
  a22dcc:	ac2ff0ef          	jal	ra,a2208e <osal_irq_lock>
  a22dd0:	56c020ef          	jal	ra,a2533c <set_cpu_utils_system_boot_magic>
  a22dd4:	31d010ef          	jal	ra,a248f0 <reboot_port_reboot_chip>
  a22dd8:	a001                	j	a22dd8 <hal_reboot_chip+0xe>

00a22dda <crypto_cache_flush>:
  a22dda:	8082                	ret

00a22ddc <crypto_wait_func_is_support>:
  a22ddc:	4501                	li	a0,0
  a22dde:	8082                	ret

00a22de0 <hal_pke_init>:
  a22de0:	00a0 67bc 079f      	l.li	a5,0xa067bc
  a22de6:	4394                	lw	a3,0(a5)
  a22de8:	4705                	li	a4,1
  a22dea:	00e68363          	beq	a3,a4,a22df0 <hal_pke_init+0x10>
  a22dee:	c398                	sw	a4,0(a5)
  a22df0:	4501                	li	a0,0
  a22df2:	8082                	ret

00a22df4 <hal_pke_deinit>:
  a22df4:	00a0 67bc 079f      	l.li	a5,0xa067bc
  a22dfa:	4398                	lw	a4,0(a5)
  a22dfc:	0107133b          	bnei	a4,1,a22e08 <hal_pke_deinit+0x14>
  a22e00:	0007a023          	sw	zero,0(a5)
  a22e04:	4501                	li	a0,0
  a22e06:	8082                	ret
  a22e08:	6530 0002 051f      	l.li	a0,0x65300002
  a22e0e:	8082                	ret

00a22e10 <hal_pke_unlock>:
  a22e10:	44111737          	lui	a4,0x44111
  a22e14:	81072783          	lw	a5,-2032(a4) # 44110810 <__data_load__+0x436e8f40>
  a22e18:	0037e793          	ori	a5,a5,3
  a22e1c:	80f72823          	sw	a5,-2032(a4)
  a22e20:	0ff0000f          	fence
  a22e24:	8082                	ret

00a22e26 <hal_hash_condition>:
  a22e26:	411c                	lw	a5,0(a0)
  a22e28:	00a0 67c4 071f      	l.li	a4,0xa067c4
  a22e2e:	1cf717db          	muliadd	a5,a4,a5,28
  a22e32:	3bd8                	lbu	a4,21(a5)
  a22e34:	0107133b          	bnei	a4,1,a22e40 <hal_hash_condition+0x1a>
  a22e38:	00078aa3          	sb	zero,21(a5)
  a22e3c:	4505                	li	a0,1
  a22e3e:	8082                	ret
  a22e40:	4501                	li	a0,0
  a22e42:	8082                	ret

00a22e44 <hal_cipher_hash_init>:
  a22e44:	8048                	push	{ra,s0-s2},-16
  a22e46:	00a0 67c0 049f      	l.li	s1,0xa067c0
  a22e4c:	209c                	lbu	a5,0(s1)
  a22e4e:	4905                	li	s2,1
  a22e50:	05278563          	beq	a5,s2,a22e9a <hal_cipher_hash_init+0x56>
  a22e54:	00a06537          	lui	a0,0xa06
  a22e58:	7c450413          	addi	s0,a0,1988 # a067c4 <g_hash_hard_ctx>
  a22e5c:	05400693          	li	a3,84
  a22e60:	4601                	li	a2,0
  a22e62:	05400593          	li	a1,84
  a22e66:	7c450513          	addi	a0,a0,1988
  a22e6a:	63c020ef          	jal	ra,a254a6 <memset_s>
  a22e6e:	00a0 6818 079f      	l.li	a5,0xa06818
  a22e74:	4709                	li	a4,2
  a22e76:	02078693          	addi	a3,a5,32
  a22e7a:	c01c                	sw	a5,0(s0)
  a22e7c:	04078793          	addi	a5,a5,64
  a22e80:	c418                	sw	a4,8(s0)
  a22e82:	00042223          	sw	zero,4(s0)
  a22e86:	cc54                	sw	a3,28(s0)
  a22e88:	d058                	sw	a4,36(s0)
  a22e8a:	02042023          	sw	zero,32(s0)
  a22e8e:	dc1c                	sw	a5,56(s0)
  a22e90:	c038                	sw	a4,64(s0)
  a22e92:	02042e23          	sw	zero,60(s0)
  a22e96:	01248023          	sb	s2,0(s1)
  a22e9a:	4501                	li	a0,0
  a22e9c:	8044                	popret	{ra,s0-s2},16

00a22e9e <hal_hash_unlock>:
  a22e9e:	441007b7          	lui	a5,0x44100
  a22ea2:	43b8                	lw	a4,64(a5)
  a22ea4:	00251693          	slli	a3,a0,0x2
  a22ea8:	453d                	li	a0,15
  a22eaa:	00d51533          	sll	a0,a0,a3
  a22eae:	fff54513          	not	a0,a0
  a22eb2:	8d79                	and	a0,a0,a4
  a22eb4:	c3a8                	sw	a0,64(a5)
  a22eb6:	0ff0000f          	fence
  a22eba:	4501                	li	a0,0
  a22ebc:	8082                	ret

00a22ebe <hal_cipher_hash_deinit>:
  a22ebe:	8038                	push	{ra,s0-s1},-16
  a22ec0:	00a0 67c0 041f      	l.li	s0,0xa067c0
  a22ec6:	201c                	lbu	a5,0(s0)
  a22ec8:	c78d                	beqz	a5,a22ef2 <hal_cipher_hash_deinit+0x34>
  a22eca:	00a0 67c4 079f      	l.li	a5,0xa067c4
  a22ed0:	4501                	li	a0,0
  a22ed2:	4384                	lw	s1,0(a5)
  a22ed4:	37e9                	jal	ra,a22e9e <hal_hash_unlock>
  a22ed6:	4505                	li	a0,1
  a22ed8:	37d9                	jal	ra,a22e9e <hal_hash_unlock>
  a22eda:	4509                	li	a0,2
  a22edc:	37c9                	jal	ra,a22e9e <hal_hash_unlock>
  a22ede:	06000693          	li	a3,96
  a22ee2:	4601                	li	a2,0
  a22ee4:	06000593          	li	a1,96
  a22ee8:	8526                	mv	a0,s1
  a22eea:	5bc020ef          	jal	ra,a254a6 <memset_s>
  a22eee:	00040023          	sb	zero,0(s0)
  a22ef2:	4501                	li	a0,0
  a22ef4:	8034                	popret	{ra,s0-s1},16

00a22ef6 <hal_cipher_hash_config>:
  a22ef6:	00a0 67c0 079f      	l.li	a5,0xa067c0
  a22efc:	239c                	lbu	a5,0(a5)
  a22efe:	872a                	mv	a4,a0
  a22f00:	557d                	li	a0,-1
  a22f02:	01279a3b          	bnei	a5,1,a22faa <hal_cipher_hash_config+0xb4>
  a22f06:	0437743b          	bgeui	a4,4,a22fd6 <hal_cipher_hash_config+0xe0>
  a22f0a:	c671                	beqz	a2,a22fd6 <hal_cipher_hash_config+0xe0>
  a22f0c:	0125d793          	srli	a5,a1,0x12
  a22f10:	00a276b7          	lui	a3,0xa27
  a22f14:	03c7f793          	andi	a5,a5,60
  a22f18:	db468693          	addi	a3,a3,-588 # a26db4 <g_crypto_ecc_params+0x14>
  a22f1c:	97b6                	add	a5,a5,a3
  a22f1e:	439c                	lw	a5,0(a5)
  a22f20:	8782                	jr	a5
  a22f22:	02000693          	li	a3,32
  a22f26:	45ad                	li	a1,11
  a22f28:	4501                	li	a0,0
  a22f2a:	a829                	j	a22f44 <hal_cipher_hash_config+0x4e>
  a22f2c:	81e1                	srli	a1,a1,0x18
  a22f2e:	89bd                	andi	a1,a1,15
  a22f30:	0125853b          	beqi	a1,1,a22fc4 <hal_cipher_hash_config+0xce>
  a22f34:	022586bb          	beqi	a1,2,a22fce <hal_cipher_hash_config+0xd8>
  a22f38:	557d                	li	a0,-1
  a22f3a:	8082                	ret
  a22f3c:	04000693          	li	a3,64
  a22f40:	45ad                	li	a1,11
  a22f42:	450d                	li	a0,3
  a22f44:	00ff ffff 081f      	l.li	a6,0xffffff
  a22f4a:	010707b3          	add	a5,a4,a6
  a22f4e:	4410 5110 081f      	l.li	a6,0x44105110
  a22f54:	10f8081b          	addshf	a6,a6,a5,sll,8
  a22f58:	00082783          	lw	a5,0(a6)
  a22f5c:	ff0f ffff 089f      	l.li	a7,0xff0fffff
  a22f62:	0117f7b3          	and	a5,a5,a7
  a22f66:	28a7a79b          	orshf	a5,a5,a0,sll,20
  a22f6a:	fff0 ffff 051f      	l.li	a0,0xfff0ffff
  a22f70:	8fe9                	and	a5,a5,a0
  a22f72:	20b7a79b          	orshf	a5,a5,a1,sll,16
  a22f76:	00f82023          	sw	a5,0(a6)
  a22f7a:	0ff0000f          	fence
  a22f7e:	4410a537          	lui	a0,0x4410a
  a22f82:	071e                	slli	a4,a4,0x7
  a22f84:	00450593          	addi	a1,a0,4 # 4410a004 <__data_load__+0x436e2734>
  a22f88:	95ba                	add	a1,a1,a4
  a22f8a:	8289                	srli	a3,a3,0x2
  a22f8c:	972a                	add	a4,a4,a0
  a22f8e:	4781                	li	a5,0
  a22f90:	c19c                	sw	a5,0(a1)
  a22f92:	0ff0000f          	fence
  a22f96:	4208                	lw	a0,0(a2)
  a22f98:	c308                	sw	a0,0(a4)
  a22f9a:	0ff0000f          	fence
  a22f9e:	0785                	addi	a5,a5,1 # 44100001 <__data_load__+0x436d8731>
  a22fa0:	0611                	addi	a2,a2,4
  a22fa2:	fef697e3          	bne	a3,a5,a22f90 <hal_cipher_hash_config+0x9a>
  a22fa6:	4501                	li	a0,0
  a22fa8:	8082                	ret
  a22faa:	8082                	ret
  a22fac:	6520 0003 051f      	l.li	a0,0x65200003
  a22fb2:	8082                	ret
  a22fb4:	46d1                	li	a3,20
  a22fb6:	45a9                	li	a1,10
  a22fb8:	bf85                	j	a22f28 <hal_cipher_hash_config+0x32>
  a22fba:	04000693          	li	a3,64
  a22fbe:	45ad                	li	a1,11
  a22fc0:	4509                	li	a0,2
  a22fc2:	b749                	j	a22f44 <hal_cipher_hash_config+0x4e>
  a22fc4:	02000693          	li	a3,32
  a22fc8:	45ad                	li	a1,11
  a22fca:	4505                	li	a0,1
  a22fcc:	bfa5                	j	a22f44 <hal_cipher_hash_config+0x4e>
  a22fce:	02000693          	li	a3,32
  a22fd2:	45b1                	li	a1,12
  a22fd4:	bf91                	j	a22f28 <hal_cipher_hash_config+0x32>
  a22fd6:	8082                	ret

00a22fd8 <hal_cipher_hash_add_in_node>:
  a22fd8:	c5b5                	beqz	a1,a23044 <hal_cipher_hash_add_in_node+0x6c>
  a22fda:	8068                	push	{ra,s0-s4},-32
  a22fdc:	00a0 67c4 041f      	l.li	s0,0xa067c4
  a22fe2:	1ca4145b          	muliadd	s0,s0,a0,28
  a22fe6:	4058                	lw	a4,4(s0)
  a22fe8:	8936                	mv	s2,a3
  a22fea:	4414                	lw	a3,8(s0)
  a22fec:	00170793          	addi	a5,a4,1
  a22ff0:	4004                	lw	s1,0(s0)
  a22ff2:	02d7f7b3          	remu	a5,a5,a3
  a22ff6:	8a32                	mv	s4,a2
  a22ff8:	08e4849b          	addshf	s1,s1,a4,sll,4
  a22ffc:	89ae                	mv	s3,a1
  a22ffe:	46c1                	li	a3,16
  a23000:	4601                	li	a2,0
  a23002:	45c1                	li	a1,16
  a23004:	8526                	mv	a0,s1
  a23006:	c05c                	sw	a5,4(s0)
  a23008:	49e020ef          	jal	ra,a254a6 <memset_s>
  a2300c:	409c                	lw	a5,0(s1)
  a2300e:	00197693          	andi	a3,s2,1
  a23012:	00497913          	andi	s2,s2,4
  a23016:	9bf1                	andi	a5,a5,-4
  a23018:	01203733          	snez	a4,s2
  a2301c:	8fd5                	or	a5,a5,a3
  a2301e:	02e7a79b          	orshf	a5,a5,a4,sll,1
  a23022:	c09c                	sw	a5,0(s1)
  a23024:	24dc                	lbu	a5,12(s1)
  a23026:	0134a423          	sw	s3,8(s1)
  a2302a:	0144a223          	sw	s4,4(s1)
  a2302e:	9bc1                	andi	a5,a5,-16
  a23030:	a4dc                	sb	a5,12(s1)
  a23032:	00090663          	beqz	s2,a2303e <hal_cipher_hash_add_in_node+0x66>
  a23036:	4785                	li	a5,1
  a23038:	b87c                	sb	a5,23(s0)
  a2303a:	4501                	li	a0,0
  a2303c:	8064                	popret	{ra,s0-s4},32
  a2303e:	00040ba3          	sb	zero,23(s0)
  a23042:	bfe5                	j	a2303a <hal_cipher_hash_add_in_node+0x62>
  a23044:	6520 00a4 051f      	l.li	a0,0x652000a4
  a2304a:	8082                	ret

00a2304c <hal_cipher_hash_start>:
  a2304c:	8068                	push	{ra,s0-s4},-32
  a2304e:	00a069b7          	lui	s3,0xa06
  a23052:	7c498913          	addi	s2,s3,1988 # a067c4 <g_hash_hard_ctx>
  a23056:	1ca9195b          	muliadd	s2,s2,a0,28
  a2305a:	01092783          	lw	a5,16(s2)
  a2305e:	4a05                	li	s4,1
  a23060:	842a                	mv	s0,a0
  a23062:	00aa14b3          	sll	s1,s4,a0
  a23066:	7c498993          	addi	s3,s3,1988
  a2306a:	cbad                	beqz	a5,a230dc <hal_cipher_hash_start+0x90>
  a2306c:	c9a5                	beqz	a1,a230dc <hal_cipher_hash_start+0x90>
  a2306e:	01494783          	lbu	a5,20(s2)
  a23072:	c7ad                	beqz	a5,a230dc <hal_cipher_hash_start+0x90>
  a23074:	d69ff0ef          	jal	ra,a22ddc <crypto_wait_func_is_support>
  a23078:	c135                	beqz	a0,a230dc <hal_cipher_hash_start+0x90>
  a2307a:	00090aa3          	sb	zero,21(s2)
  a2307e:	01490b23          	sb	s4,22(s2)
  a23082:	441087b7          	lui	a5,0x44108
  a23086:	6047a703          	lw	a4,1540(a5) # 44108604 <__data_load__+0x436e0d34>
  a2308a:	8cd9                	or	s1,s1,a4
  a2308c:	6097a223          	sw	s1,1540(a5)
  a23090:	0ff0000f          	fence
  a23094:	00ff ffff 091f      	l.li	s2,0xffffff
  a2309a:	012407b3          	add	a5,s0,s2
  a2309e:	4410 5130 091f      	l.li	s2,0x44105130
  a230a4:	10f9091b          	addshf	s2,s2,a5,sll,8
  a230a8:	00092703          	lw	a4,0(s2)
  a230ac:	1c89945b          	muliadd	s0,s3,s0,28
  a230b0:	4414                	lw	a3,8(s0)
  a230b2:	0ff77793          	andi	a5,a4,255
  a230b6:	0785                	addi	a5,a5,1
  a230b8:	02d7f7b3          	remu	a5,a5,a3
  a230bc:	4008                	lw	a0,0(s0)
  a230be:	f0077713          	andi	a4,a4,-256
  a230c2:	02000593          	li	a1,32
  a230c6:	9f81                	uxtb	a5
  a230c8:	00f764b3          	or	s1,a4,a5
  a230cc:	d0fff0ef          	jal	ra,a22dda <crypto_cache_flush>
  a230d0:	00992023          	sw	s1,0(s2)
  a230d4:	0ff0000f          	fence
  a230d8:	4501                	li	a0,0
  a230da:	8064                	popret	{ra,s0-s4},32
  a230dc:	1c8997db          	muliadd	a5,s3,s0,28
  a230e0:	00078b23          	sb	zero,22(a5)
  a230e4:	441087b7          	lui	a5,0x44108
  a230e8:	6047a703          	lw	a4,1540(a5) # 44108604 <__data_load__+0x436e0d34>
  a230ec:	fff4c493          	not	s1,s1
  a230f0:	8cf9                	and	s1,s1,a4
  a230f2:	bf69                	j	a2308c <hal_cipher_hash_start+0x40>

00a230f4 <hal_cipher_hash_done_try>:
  a230f4:	44108737          	lui	a4,0x44108
  a230f8:	60072683          	lw	a3,1536(a4) # 44108600 <__data_load__+0x436e0d30>
  a230fc:	4785                	li	a5,1
  a230fe:	00a79533          	sll	a0,a5,a0
  a23102:	8d75                	and	a0,a0,a3
  a23104:	60a72023          	sw	a0,1536(a4)
  a23108:	0ff0000f          	fence
  a2310c:	8082                	ret

00a2310e <hal_hash_lock>:
  a2310e:	fff50793          	addi	a5,a0,-1
  a23112:	0347f03b          	bgeui	a5,3,a23212 <hal_hash_lock+0x104>
  a23116:	8058                	push	{ra,s0-s3},-32
  a23118:	842a                	mv	s0,a0
  a2311a:	906ff0ef          	jal	ra,a22220 <crypto_get_cpu_type>
  a2311e:	44100737          	lui	a4,0x44100
  a23122:	432c                	lw	a1,64(a4)
  a23124:	00241693          	slli	a3,s0,0x2
  a23128:	00153513          	seqz	a0,a0
  a2312c:	00d5d633          	srl	a2,a1,a3
  a23130:	8a3d                	andi	a2,a2,15
  a23132:	0505                	addi	a0,a0,1
  a23134:	c609                	beqz	a2,a2313e <hal_hash_lock+0x30>
  a23136:	6520 0005 051f      	l.li	a0,0x65200005
  a2313c:	8054                	popret	{ra,s0-s3},32
  a2313e:	00d517b3          	sll	a5,a0,a3
  a23142:	8fcd                	or	a5,a5,a1
  a23144:	c33c                	sw	a5,64(a4)
  a23146:	0ff0000f          	fence
  a2314a:	433c                	lw	a5,64(a4)
  a2314c:	00d7d7b3          	srl	a5,a5,a3
  a23150:	8bbd                	andi	a5,a5,15
  a23152:	fef512e3          	bne	a0,a5,a23136 <hal_hash_lock+0x28>
  a23156:	441086b7          	lui	a3,0x44108
  a2315a:	6046a603          	lw	a2,1540(a3) # 44108604 <__data_load__+0x436e0d34>
  a2315e:	4485                	li	s1,1
  a23160:	008494b3          	sll	s1,s1,s0
  a23164:	fff4c793          	not	a5,s1
  a23168:	8ff1                	and	a5,a5,a2
  a2316a:	60f6a223          	sw	a5,1540(a3)
  a2316e:	0ff0000f          	fence
  a23172:	d724                	sw	s1,104(a4)
  a23174:	0ff0000f          	fence
  a23178:	0098 9680 091f      	l.li	s2,0x989680
  a2317e:	441009b7          	lui	s3,0x44100
  a23182:	0149a783          	lw	a5,20(s3) # 44100014 <__data_load__+0x436d8744>
  a23186:	8fe5                	and	a5,a5,s1
  a23188:	cba5                	beqz	a5,a231f8 <hal_hash_lock+0xea>
  a2318a:	0099aa23          	sw	s1,20(s3)
  a2318e:	0ff0000f          	fence
  a23192:	80000937          	lui	s2,0x80000
  a23196:	88aff0ef          	jal	ra,a22220 <crypto_get_cpu_type>
  a2319a:	e535                	bnez	a0,a23206 <hal_hash_lock+0xf8>
  a2319c:	50096913          	ori	s2,s2,1280
  a231a0:	0044 1050 049f      	l.li	s1,0x441050
  a231a6:	94a2                	add	s1,s1,s0
  a231a8:	04a2                	slli	s1,s1,0x8
  a231aa:	0124a023          	sw	s2,0(s1)
  a231ae:	0ff0000f          	fence
  a231b2:	00a0 67c4 091f      	l.li	s2,0xa067c4
  a231b8:	1c89195b          	muliadd	s2,s2,s0,28
  a231bc:	00092503          	lw	a0,0(s2) # 80000000 <__data_load__+0x7f5d8730>
  a231c0:	826ff0ef          	jal	ra,a221e6 <crypto_get_phys_addr>
  a231c4:	d0c8                	sw	a0,36(s1)
  a231c6:	0ff0000f          	fence
  a231ca:	0204a023          	sw	zero,32(s1)
  a231ce:	0ff0000f          	fence
  a231d2:	4789                	li	a5,2
  a231d4:	d4dc                	sw	a5,44(s1)
  a231d6:	0ff0000f          	fence
  a231da:	8522                	mv	a0,s0
  a231dc:	3f21                	jal	ra,a230f4 <hal_cipher_hash_done_try>
  a231de:	00092503          	lw	a0,0(s2)
  a231e2:	00092223          	sw	zero,4(s2)
  a231e6:	02000693          	li	a3,32
  a231ea:	4601                	li	a2,0
  a231ec:	02000593          	li	a1,32
  a231f0:	2b6020ef          	jal	ra,a254a6 <memset_s>
  a231f4:	4501                	li	a0,0
  a231f6:	b799                	j	a2313c <hal_hash_lock+0x2e>
  a231f8:	4505                	li	a0,1
  a231fa:	197d                	addi	s2,s2,-1
  a231fc:	9eaff0ef          	jal	ra,a223e6 <uapi_tcxo_delay_us>
  a23200:	f80911e3          	bnez	s2,a23182 <hal_hash_lock+0x74>
  a23204:	b779                	j	a23192 <hal_hash_lock+0x84>
  a23206:	0000 0a00 079f      	l.li	a5,0xa00
  a2320c:	00f96933          	or	s2,s2,a5
  a23210:	bf41                	j	a231a0 <hal_hash_lock+0x92>
  a23212:	557d                	li	a0,-1
  a23214:	8082                	ret

00a23216 <hal_hash_debug_chn>:
  a23216:	030577bb          	bgeui	a0,3,a23234 <hal_hash_debug_chn+0x1e>
  a2321a:	4410 a004 079f      	l.li	a5,0x4410a004
  a23220:	0ea7851b          	addshf	a0,a5,a0,sll,7
  a23224:	4741                	li	a4,16
  a23226:	4781                	li	a5,0
  a23228:	c11c                	sw	a5,0(a0)
  a2322a:	0ff0000f          	fence
  a2322e:	0785                	addi	a5,a5,1
  a23230:	fee79ce3          	bne	a5,a4,a23228 <hal_hash_debug_chn+0x12>
  a23234:	8082                	ret

00a23236 <hal_cipher_hash_wait_done>:
  a23236:	4446783b          	bgeui	a2,68,a23356 <hal_cipher_hash_wait_done+0x120>
  a2323a:	81a8                	push	{ra,s0-s8},-64
  a2323c:	00a0 67c4 079f      	l.li	a5,0xa067c4
  a23242:	1ca797db          	muliadd	a5,a5,a0,28
  a23246:	3bf8                	lbu	a4,23(a5)
  a23248:	89b2                	mv	s3,a2
  a2324a:	892e                	mv	s2,a1
  a2324c:	842a                	mv	s0,a0
  a2324e:	cf41                	beqz	a4,a232e6 <hal_cipher_hash_wait_done+0xb0>
  a23250:	2bf8                	lbu	a4,22(a5)
  a23252:	c62a                	sw	a0,12(sp)
  a23254:	4481                	li	s1,0
  a23256:	0117193b          	bnei	a4,1,a232ba <hal_cipher_hash_wait_done+0x84>
  a2325a:	4b98                	lw	a4,16(a5)
  a2325c:	cf39                	beqz	a4,a232ba <hal_cipher_hash_wait_done+0x84>
  a2325e:	4f94                	lw	a3,24(a5)
  a23260:	47c8                	lw	a0,12(a5)
  a23262:	0070                	addi	a2,sp,12
  a23264:	00a2 2e26 059f      	l.li	a1,0xa22e26
  a2326a:	9702                	jalr	a4
  a2326c:	0ca04663          	bgtz	a0,a23338 <hal_cipher_hash_wait_done+0x102>
  a23270:	441007b7          	lui	a5,0x44100
  a23274:	43bc                	lw	a5,64(a5)
  a23276:	8522                	mv	a0,s0
  a23278:	3f79                	jal	ra,a23216 <hal_hash_debug_chn>
  a2327a:	6520 00b2 051f      	l.li	a0,0x652000b2
  a23280:	44108737          	lui	a4,0x44108
  a23284:	60472683          	lw	a3,1540(a4) # 44108604 <__data_load__+0x436e0d34>
  a23288:	4785                	li	a5,1
  a2328a:	008797b3          	sll	a5,a5,s0
  a2328e:	fff7c793          	not	a5,a5
  a23292:	8ff5                	and	a5,a5,a3
  a23294:	60f72223          	sw	a5,1540(a4)
  a23298:	0ff0000f          	fence
  a2329c:	00090e63          	beqz	s2,a232b8 <hal_cipher_hash_wait_done+0x82>
  a232a0:	4410a7b7          	lui	a5,0x4410a
  a232a4:	041e                	slli	s0,s0,0x7
  a232a6:	00478713          	addi	a4,a5,4 # 4410a004 <__data_load__+0x436e2734>
  a232aa:	9722                	add	a4,a4,s0
  a232ac:	0029d993          	srli	s3,s3,0x2
  a232b0:	943e                	add	s0,s0,a5
  a232b2:	4781                	li	a5,0
  a232b4:	08f99863          	bne	s3,a5,a23344 <hal_cipher_hash_wait_done+0x10e>
  a232b8:	81a4                	popret	{ra,s0-s8},64
  a232ba:	3e800a93          	li	s5,1000
  a232be:	0000 1770 0a1f      	l.li	s4,0x1770
  a232c4:	4532                	lw	a0,12(sp)
  a232c6:	353d                	jal	ra,a230f4 <hal_cipher_hash_done_try>
  a232c8:	c119                	beqz	a0,a232ce <hal_cipher_hash_wait_done+0x98>
  a232ca:	4501                	li	a0,0
  a232cc:	bf55                	j	a23280 <hal_cipher_hash_wait_done+0x4a>
  a232ce:	4505                	li	a0,1
  a232d0:	009ae863          	bltu	s5,s1,a232e0 <hal_cipher_hash_wait_done+0xaa>
  a232d4:	912ff0ef          	jal	ra,a223e6 <uapi_tcxo_delay_us>
  a232d8:	0485                	addi	s1,s1,1
  a232da:	ff4495e3          	bne	s1,s4,a232c4 <hal_cipher_hash_wait_done+0x8e>
  a232de:	bf49                	j	a23270 <hal_cipher_hash_wait_done+0x3a>
  a232e0:	8b6ff0ef          	jal	ra,a22396 <uapi_tcxo_delay_ms>
  a232e4:	bfd5                	j	a232d8 <hal_cipher_hash_wait_done+0xa2>
  a232e6:	00ff ffff 049f      	l.li	s1,0xffffff
  a232ec:	441057b7          	lui	a5,0x44105
  a232f0:	94aa                	add	s1,s1,a0
  a232f2:	04a2                	slli	s1,s1,0x8
  a232f4:	13478b13          	addi	s6,a5,308 # 44105134 <__data_load__+0x436dd864>
  a232f8:	13078793          	addi	a5,a5,304
  a232fc:	9b26                	add	s6,s6,s1
  a232fe:	00f48a33          	add	s4,s1,a5
  a23302:	4a81                	li	s5,0
  a23304:	3e800c13          	li	s8,1000
  a23308:	0000 1770 0b9f      	l.li	s7,0x1770
  a2330e:	000b2703          	lw	a4,0(s6)
  a23312:	000a2783          	lw	a5,0(s4)
  a23316:	4505                	li	a0,1
  a23318:	04f70163          	beq	a4,a5,a2335a <hal_cipher_hash_wait_done+0x124>
  a2331c:	015c6863          	bltu	s8,s5,a2332c <hal_cipher_hash_wait_done+0xf6>
  a23320:	8c6ff0ef          	jal	ra,a223e6 <uapi_tcxo_delay_us>
  a23324:	0a85                	addi	s5,s5,1
  a23326:	ff7a94e3          	bne	s5,s7,a2330e <hal_cipher_hash_wait_done+0xd8>
  a2332a:	b799                	j	a23270 <hal_cipher_hash_wait_done+0x3a>
  a2332c:	86aff0ef          	jal	ra,a22396 <uapi_tcxo_delay_ms>
  a23330:	bfd5                	j	a23324 <hal_cipher_hash_wait_done+0xee>
  a23332:	864ff0ef          	jal	ra,a22396 <uapi_tcxo_delay_ms>
  a23336:	a0a9                	j	a23380 <hal_cipher_hash_wait_done+0x14a>
  a23338:	6520 00b2 079f      	l.li	a5,0x652000b2
  a2333e:	f8f516e3          	bne	a0,a5,a232ca <hal_cipher_hash_wait_done+0x94>
  a23342:	b73d                	j	a23270 <hal_cipher_hash_wait_done+0x3a>
  a23344:	c31c                	sw	a5,0(a4)
  a23346:	0ff0000f          	fence
  a2334a:	4014                	lw	a3,0(s0)
  a2334c:	0785                	addi	a5,a5,1
  a2334e:	0911                	addi	s2,s2,4
  a23350:	fed92e23          	sw	a3,-4(s2)
  a23354:	b785                	j	a232b4 <hal_cipher_hash_wait_done+0x7e>
  a23356:	557d                	li	a0,-1
  a23358:	8082                	ret
  a2335a:	88cff0ef          	jal	ra,a223e6 <uapi_tcxo_delay_us>
  a2335e:	4410 51c0 079f      	l.li	a5,0x441051c0
  a23364:	4a01                	li	s4,0
  a23366:	94be                	add	s1,s1,a5
  a23368:	3e800b13          	li	s6,1000
  a2336c:	0000 1770 0a9f      	l.li	s5,0x1770
  a23372:	409c                	lw	a5,0(s1)
  a23374:	dbb9                	beqz	a5,a232ca <hal_cipher_hash_wait_done+0x94>
  a23376:	4505                	li	a0,1
  a23378:	fb4b6de3          	bltu	s6,s4,a23332 <hal_cipher_hash_wait_done+0xfc>
  a2337c:	86aff0ef          	jal	ra,a223e6 <uapi_tcxo_delay_us>
  a23380:	0a05                	addi	s4,s4,1
  a23382:	ff5a18e3          	bne	s4,s5,a23372 <hal_cipher_hash_wait_done+0x13c>
  a23386:	b5ed                	j	a23270 <hal_cipher_hash_wait_done+0x3a>

00a23388 <hal_cipher_trng_init>:
  a23388:	00a0 6878 079f      	l.li	a5,0xa06878
  a2338e:	4705                	li	a4,1
  a23390:	a398                	sb	a4,0(a5)
  a23392:	4501                	li	a0,0
  a23394:	8082                	ret

00a23396 <hal_cipher_trng_deinit>:
  a23396:	00a0 6878 079f      	l.li	a5,0xa06878
  a2339c:	00078023          	sb	zero,0(a5)
  a233a0:	4501                	li	a0,0
  a233a2:	8082                	ret

00a233a4 <hal_tcxo_init>:
  a233a4:	8018                	push	{ra},-16
  a233a6:	28a9                	jal	ra,a23400 <hal_tcxo_v150_regs_init>
  a233a8:	e105                	bnez	a0,a233c8 <hal_tcxo_init+0x24>
  a233aa:	00a07737          	lui	a4,0xa07
  a233ae:	87c72683          	lw	a3,-1924(a4) # a0687c <g_tcxo_regs>
  a233b2:	429c                	lw	a5,0(a3)
  a233b4:	0047e793          	ori	a5,a5,4
  a233b8:	c29c                	sw	a5,0(a3)
  a233ba:	87c72703          	lw	a4,-1924(a4)
  a233be:	431c                	lw	a5,0(a4)
  a233c0:	0027e793          	ori	a5,a5,2
  a233c4:	c31c                	sw	a5,0(a4)
  a233c6:	8014                	popret	{ra},16
  a233c8:	8000 1180 051f      	l.li	a0,0x80001180
  a233ce:	bfe5                	j	a233c6 <hal_tcxo_init+0x22>

00a233d0 <hal_tcxo_get>:
  a233d0:	00a077b7          	lui	a5,0xa07
  a233d4:	87c7a683          	lw	a3,-1924(a5) # a0687c <g_tcxo_regs>
  a233d8:	4605                	li	a2,1
  a233da:	4298                	lw	a4,0(a3)
  a233dc:	00176713          	ori	a4,a4,1
  a233e0:	c298                	sw	a4,0(a3)
  a233e2:	56fd                	li	a3,-1
  a233e4:	873e                	mv	a4,a5
  a233e6:	87c72783          	lw	a5,-1924(a4)
  a233ea:	439c                	lw	a5,0(a5)
  a233ec:	8391                	srli	a5,a5,0x4
  a233ee:	8b85                	andi	a5,a5,1
  a233f0:	00c78763          	beq	a5,a2,a233fe <hal_tcxo_get+0x2e>
  a233f4:	16fd                	addi	a3,a3,-1
  a233f6:	fae5                	bnez	a3,a233e6 <hal_tcxo_get+0x16>
  a233f8:	4501                	li	a0,0
  a233fa:	4581                	li	a1,0
  a233fc:	8082                	ret
  a233fe:	a00d                	j	a23420 <hal_tcxo_reg_count_get>

00a23400 <hal_tcxo_v150_regs_init>:
  a23400:	8018                	push	{ra},-16
  a23402:	44b000ef          	jal	ra,a2404c <tcxo_porting_base_addr_get>
  a23406:	c909                	beqz	a0,a23418 <hal_tcxo_v150_regs_init+0x18>
  a23408:	445000ef          	jal	ra,a2404c <tcxo_porting_base_addr_get>
  a2340c:	00a0 687c 079f      	l.li	a5,0xa0687c
  a23412:	c388                	sw	a0,0(a5)
  a23414:	4501                	li	a0,0
  a23416:	8014                	popret	{ra},16
  a23418:	8000 1180 051f      	l.li	a0,0x80001180
  a2341e:	bfe5                	j	a23416 <hal_tcxo_v150_regs_init+0x16>

00a23420 <hal_tcxo_reg_count_get>:
  a23420:	00a0 687c 079f      	l.li	a5,0xa0687c
  a23426:	439c                	lw	a5,0(a5)
  a23428:	478c                	lw	a1,8(a5)
  a2342a:	43c8                	lw	a0,4(a5)
  a2342c:	8082                	ret

00a2342e <hal_uart_register_funcs>:
  a2342e:	030575bb          	bgeui	a0,3,a23444 <hal_uart_register_funcs+0x16>
  a23432:	c989                	beqz	a1,a23444 <hal_uart_register_funcs+0x16>
  a23434:	00a0 6880 079f      	l.li	a5,0xa06880
  a2343a:	04a7851b          	addshf	a0,a5,a0,sll,2
  a2343e:	c10c                	sw	a1,0(a0)
  a23440:	4501                	li	a0,0
  a23442:	8082                	ret
  a23444:	80000537          	lui	a0,0x80000
  a23448:	0505                	addi	a0,a0,1 # 80000001 <__data_load__+0x7f5d8731>
  a2344a:	8082                	ret

00a2344c <hal_uart_init>:
  a2344c:	8228                	push	{ra,s0},-48
  a2344e:	842a                	mv	s0,a0
  a23450:	ce2e                	sw	a1,28(sp)
  a23452:	cc32                	sw	a2,24(sp)
  a23454:	ca36                	sw	a3,20(sp)
  a23456:	c83a                	sw	a4,16(sp)
  a23458:	c63e                	sw	a5,12(sp)
  a2345a:	32f000ef          	jal	ra,a23f88 <uart_port_register_hal_funcs>
  a2345e:	00a0 6880 051f      	l.li	a0,0xa06880
  a23464:	0485051b          	addshf	a0,a0,s0,sll,2
  a23468:	4108                	lw	a0,0(a0)
  a2346a:	cd01                	beqz	a0,a23482 <hal_uart_init+0x36>
  a2346c:	46d2                	lw	a3,20(sp)
  a2346e:	ca91                	beqz	a3,a23482 <hal_uart_init+0x36>
  a23470:	00052303          	lw	t1,0(a0)
  a23474:	47b2                	lw	a5,12(sp)
  a23476:	4742                	lw	a4,16(sp)
  a23478:	4662                	lw	a2,24(sp)
  a2347a:	45f2                	lw	a1,28(sp)
  a2347c:	8522                	mv	a0,s0
  a2347e:	8220                	pop	{ra,s0},48
  a23480:	8302                	jr	t1
  a23482:	8000 1047 051f      	l.li	a0,0x80001047
  a23488:	8224                	popret	{ra,s0},48

00a2348a <hal_uart_deinit>:
  a2348a:	00a0 6880 079f      	l.li	a5,0xa06880
  a23490:	04a7879b          	addshf	a5,a5,a0,sll,2
  a23494:	439c                	lw	a5,0(a5)
  a23496:	0047a303          	lw	t1,4(a5)
  a2349a:	8302                	jr	t1

00a2349c <hal_uart_write>:
  a2349c:	00a0 6880 079f      	l.li	a5,0xa06880
  a234a2:	04a7879b          	addshf	a5,a5,a0,sll,2
  a234a6:	439c                	lw	a5,0(a5)
  a234a8:	00c7a303          	lw	t1,12(a5)
  a234ac:	8302                	jr	t1

00a234ae <hal_uart_read>:
  a234ae:	00a0 6880 079f      	l.li	a5,0xa06880
  a234b4:	04a7879b          	addshf	a5,a5,a0,sll,2
  a234b8:	439c                	lw	a5,0(a5)
  a234ba:	0107a303          	lw	t1,16(a5)
  a234be:	8302                	jr	t1

00a234c0 <hal_uart_ctrl>:
  a234c0:	00a0 6880 079f      	l.li	a5,0xa06880
  a234c6:	04a7879b          	addshf	a5,a5,a0,sll,2
  a234ca:	439c                	lw	a5,0(a5)
  a234cc:	c781                	beqz	a5,a234d4 <hal_uart_ctrl+0x14>
  a234ce:	0087a303          	lw	t1,8(a5)
  a234d2:	8302                	jr	t1
  a234d4:	8000 1047 051f      	l.li	a0,0x80001047
  a234da:	8082                	ret

00a234dc <hal_uart_v151_ctrl_get_rxfifo_passnum>:
  a234dc:	c609                	beqz	a2,a234e6 <hal_uart_v151_ctrl_get_rxfifo_passnum+0xa>
  a234de:	57fd                	li	a5,-1
  a234e0:	c21c                	sw	a5,0(a2)
  a234e2:	4501                	li	a0,0
  a234e4:	8082                	ret
  a234e6:	80000537          	lui	a0,0x80000
  a234ea:	0505                	addi	a0,a0,1 # 80000001 <__data_load__+0x7f5d8731>
  a234ec:	8082                	ret

00a234ee <hal_uart_v151_get_uart_rxfifo_threshold>:
  a234ee:	00a0 68a8 079f      	l.li	a5,0xa068a8
  a234f4:	953e                	add	a0,a0,a5
  a234f6:	2114                	lbu	a3,0(a0)
  a234f8:	03e00713          	li	a4,62
  a234fc:	0306f3bb          	bgeui	a3,3,a2350a <hal_uart_v151_get_uart_rxfifo_threshold+0x1c>
  a23500:	00a2 6e2c 079f      	l.li	a5,0xa26e2c
  a23506:	97b6                	add	a5,a5,a3
  a23508:	2398                	lbu	a4,0(a5)
  a2350a:	c218                	sw	a4,0(a2)
  a2350c:	4501                	li	a0,0
  a2350e:	8082                	ret

00a23510 <hal_uart_v151_deinit>:
  a23510:	00a0 688c 079f      	l.li	a5,0xa0688c
  a23516:	04a7851b          	addshf	a0,a5,a0,sll,2
  a2351a:	00052023          	sw	zero,0(a0)
  a2351e:	4501                	li	a0,0
  a23520:	8082                	ret

00a23522 <hal_uart_set_diven>:
  a23522:	00a0 689c 079f      	l.li	a5,0xa0689c
  a23528:	04a7851b          	addshf	a0,a5,a0,sll,2
  a2352c:	4118                	lw	a4,0(a0)
  a2352e:	8985                	andi	a1,a1,1
  a23530:	471c                	lw	a5,8(a4)
  a23532:	9bf9                	andi	a5,a5,-2
  a23534:	8fcd                	or	a5,a5,a1
  a23536:	c71c                	sw	a5,8(a4)
  a23538:	8082                	ret

00a2353a <hal_uart_is_tx_fifo_full>:
  a2353a:	00a0 689c 079f      	l.li	a5,0xa0689c
  a23540:	04a7851b          	addshf	a0,a5,a0,sll,2
  a23544:	411c                	lw	a5,0(a0)
  a23546:	4501                	li	a0,0
  a23548:	43fc                	lw	a5,68(a5)
  a2354a:	8b85                	andi	a5,a5,1
  a2354c:	a21c                	sb	a5,0(a2)
  a2354e:	8082                	ret

00a23550 <hal_uart_is_tx_fifo_empty>:
  a23550:	00a0 689c 079f      	l.li	a5,0xa0689c
  a23556:	04a7851b          	addshf	a0,a5,a0,sll,2
  a2355a:	411c                	lw	a5,0(a0)
  a2355c:	4501                	li	a0,0
  a2355e:	43fc                	lw	a5,68(a5)
  a23560:	8385                	srli	a5,a5,0x1
  a23562:	8b85                	andi	a5,a5,1
  a23564:	a21c                	sb	a5,0(a2)
  a23566:	8082                	ret

00a23568 <hal_uart_is_busy>:
  a23568:	00a0 689c 079f      	l.li	a5,0xa0689c
  a2356e:	04a7851b          	addshf	a0,a5,a0,sll,2
  a23572:	411c                	lw	a5,0(a0)
  a23574:	4501                	li	a0,0
  a23576:	43fc                	lw	a5,68(a5)
  a23578:	9f81                	uxtb	a5
  a2357a:	8385                	srli	a5,a5,0x1
  a2357c:	0017c793          	xori	a5,a5,1
  a23580:	8b85                	andi	a5,a5,1
  a23582:	a21c                	sb	a5,0(a2)
  a23584:	8082                	ret

00a23586 <hal_uart_is_rx_fifo_empty>:
  a23586:	00a0 689c 079f      	l.li	a5,0xa0689c
  a2358c:	04a7851b          	addshf	a0,a5,a0,sll,2
  a23590:	411c                	lw	a5,0(a0)
  a23592:	4501                	li	a0,0
  a23594:	43fc                	lw	a5,68(a5)
  a23596:	838d                	srli	a5,a5,0x3
  a23598:	8b85                	andi	a5,a5,1
  a2359a:	a21c                	sb	a5,0(a2)
  a2359c:	8082                	ret

00a2359e <hal_uart_v151_write>:
  a2359e:	00a0 689c 079f      	l.li	a5,0xa0689c
  a235a4:	04a7851b          	addshf	a0,a5,a0,sll,2
  a235a8:	e219                	bnez	a2,a235ae <hal_uart_v151_write+0x10>
  a235aa:	4501                	li	a0,0
  a235ac:	8082                	ret
  a235ae:	4118                	lw	a4,0(a0)
  a235b0:	437c                	lw	a5,68(a4)
  a235b2:	8b85                	andi	a5,a5,1
  a235b4:	fbf5                	bnez	a5,a235a8 <hal_uart_v151_write+0xa>
  a235b6:	0585                	addi	a1,a1,1
  a235b8:	fff5c783          	lbu	a5,-1(a1)
  a235bc:	167d                	addi	a2,a2,-1
  a235be:	9e21                	uxth	a2
  a235c0:	c35c                	sw	a5,4(a4)
  a235c2:	b7dd                	j	a235a8 <hal_uart_v151_write+0xa>

00a235c4 <hal_uart_v151_read>:
  a235c4:	00a0 689c 071f      	l.li	a4,0xa0689c
  a235ca:	4781                	li	a5,0
  a235cc:	04a7051b          	addshf	a0,a4,a0,sll,2
  a235d0:	00c7c463          	blt	a5,a2,a235d8 <hal_uart_v151_read+0x14>
  a235d4:	853e                	mv	a0,a5
  a235d6:	8082                	ret
  a235d8:	4114                	lw	a3,0(a0)
  a235da:	42f8                	lw	a4,68(a3)
  a235dc:	8b21                	andi	a4,a4,8
  a235de:	fb7d                	bnez	a4,a235d4 <hal_uart_v151_read+0x10>
  a235e0:	42d4                	lw	a3,4(a3)
  a235e2:	00f58733          	add	a4,a1,a5
  a235e6:	0785                	addi	a5,a5,1
  a235e8:	a314                	sb	a3,0(a4)
  a235ea:	b7dd                	j	a235d0 <hal_uart_v151_read+0xc>

00a235ec <hal_uart_v151_ctrl>:
  a235ec:	00a2 6e30 079f      	l.li	a5,0xa26e30
  a235f2:	04b7879b          	addshf	a5,a5,a1,sll,2
  a235f6:	0007a303          	lw	t1,0(a5)
  a235fa:	00030363          	beqz	t1,a23600 <hal_uart_v151_ctrl+0x14>
  a235fe:	8302                	jr	t1
  a23600:	8000 1047 051f      	l.li	a0,0x80001047
  a23606:	8082                	ret

00a23608 <hal_uart_init_fifo>:
  a23608:	00a0 689c 079f      	l.li	a5,0xa0689c
  a2360e:	04a7879b          	addshf	a5,a5,a0,sll,2
  a23612:	4398                	lw	a4,0(a5)
  a23614:	0035f693          	andi	a3,a1,3
  a23618:	535c                	lw	a5,36(a4)
  a2361a:	9bcd                	andi	a5,a5,-13
  a2361c:	04d7a79b          	orshf	a5,a5,a3,sll,2
  a23620:	9bf1                	andi	a5,a5,-4
  a23622:	00367693          	andi	a3,a2,3
  a23626:	8fd5                	or	a5,a5,a3
  a23628:	0107e793          	ori	a5,a5,16
  a2362c:	d35c                	sw	a5,36(a4)
  a2362e:	00a0 68a8 079f      	l.li	a5,0xa068a8
  a23634:	97aa                	add	a5,a5,a0
  a23636:	a38c                	sb	a1,0(a5)
  a23638:	00a0 68ac 079f      	l.li	a5,0xa068ac
  a2363e:	953e                	add	a0,a0,a5
  a23640:	a110                	sb	a2,0(a0)
  a23642:	8082                	ret

00a23644 <hal_uart_v151_ctrl_set_txfifo_int_level>:
  a23644:	0406633b          	bltui	a2,4,a23650 <hal_uart_v151_ctrl_set_txfifo_int_level+0xc>
  a23648:	80000537          	lui	a0,0x80000
  a2364c:	0505                	addi	a0,a0,1 # 80000001 <__data_load__+0x7f5d8731>
  a2364e:	8082                	ret
  a23650:	8018                	push	{ra},-16
  a23652:	00a0 68a8 079f      	l.li	a5,0xa068a8
  a23658:	97aa                	add	a5,a5,a0
  a2365a:	238c                	lbu	a1,0(a5)
  a2365c:	9e01                	uxtb	a2
  a2365e:	376d                	jal	ra,a23608 <hal_uart_init_fifo>
  a23660:	4501                	li	a0,0
  a23662:	8014                	popret	{ra},16

00a23664 <hal_uart_v151_ctrl_set_rxfifo_int_level>:
  a23664:	0406633b          	bltui	a2,4,a23670 <hal_uart_v151_ctrl_set_rxfifo_int_level+0xc>
  a23668:	80000537          	lui	a0,0x80000
  a2366c:	0505                	addi	a0,a0,1 # 80000001 <__data_load__+0x7f5d8731>
  a2366e:	8082                	ret
  a23670:	8018                	push	{ra},-16
  a23672:	00a0 68ac 079f      	l.li	a5,0xa068ac
  a23678:	97aa                	add	a5,a5,a0
  a2367a:	85b2                	mv	a1,a2
  a2367c:	2390                	lbu	a2,0(a5)
  a2367e:	9d81                	uxtb	a1
  a23680:	3761                	jal	ra,a23608 <hal_uart_init_fifo>
  a23682:	4501                	li	a0,0
  a23684:	8014                	popret	{ra},16

00a23686 <hal_uart_set_baud_rate>:
  a23686:	c1a1                	beqz	a1,a236c6 <hal_uart_set_baud_rate+0x40>
  a23688:	8048                	push	{ra,s0-s2},-16
  a2368a:	0592                	slli	a1,a1,0x4
  a2368c:	02b67433          	remu	s0,a2,a1
  a23690:	892a                	mv	s2,a0
  a23692:	02b654b3          	divu	s1,a2,a1
  a23696:	041a                	slli	s0,s0,0x6
  a23698:	02b45433          	divu	s0,s0,a1
  a2369c:	4585                	li	a1,1
  a2369e:	3551                	jal	ra,a23522 <hal_uart_set_diven>
  a236a0:	00a0 689c 079f      	l.li	a5,0xa0689c
  a236a6:	0527879b          	addshf	a5,a5,s2,sll,2
  a236aa:	439c                	lw	a5,0(a5)
  a236ac:	0ff4f713          	andi	a4,s1,255
  a236b0:	9ca1                	uxth	s1
  a236b2:	cb98                	sw	a4,16(a5)
  a236b4:	80a1                	srli	s1,s1,0x8
  a236b6:	c7c4                	sw	s1,12(a5)
  a236b8:	4581                	li	a1,0
  a236ba:	854a                	mv	a0,s2
  a236bc:	03f47413          	andi	s0,s0,63
  a236c0:	cbc0                	sw	s0,20(a5)
  a236c2:	8040                	pop	{ra,s0-s2},16
  a236c4:	bdb9                	j	a23522 <hal_uart_set_diven>
  a236c6:	8082                	ret

00a236c8 <hal_uart_set_data_bits>:
  a236c8:	00a0 689c 079f      	l.li	a5,0xa0689c
  a236ce:	04a7851b          	addshf	a0,a5,a0,sll,2
  a236d2:	4118                	lw	a4,0(a0)
  a236d4:	898d                	andi	a1,a1,3
  a236d6:	471c                	lw	a5,8(a4)
  a236d8:	9bcd                	andi	a5,a5,-13
  a236da:	04b7a79b          	orshf	a5,a5,a1,sll,2
  a236de:	c71c                	sw	a5,8(a4)
  a236e0:	8082                	ret

00a236e2 <hal_uart_set_stop_bits>:
  a236e2:	00a0 689c 079f      	l.li	a5,0xa0689c
  a236e8:	04a7851b          	addshf	a0,a5,a0,sll,2
  a236ec:	4118                	lw	a4,0(a0)
  a236ee:	8985                	andi	a1,a1,1
  a236f0:	471c                	lw	a5,8(a4)
  a236f2:	f7f7f793          	andi	a5,a5,-129
  a236f6:	0eb7a79b          	orshf	a5,a5,a1,sll,7
  a236fa:	c71c                	sw	a5,8(a4)
  a236fc:	8082                	ret

00a236fe <hal_uart_auto_flow_ctl_en>:
  a236fe:	00a0 689c 079f      	l.li	a5,0xa0689c
  a23704:	04a7851b          	addshf	a0,a5,a0,sll,2
  a23708:	4118                	lw	a4,0(a0)
  a2370a:	8985                	andi	a1,a1,1
  a2370c:	575c                	lw	a5,44(a4)
  a2370e:	9be9                	andi	a5,a5,-6
  a23710:	8fcd                	or	a5,a5,a1
  a23712:	04b7a59b          	orshf	a1,a5,a1,sll,2
  a23716:	d74c                	sw	a1,44(a4)
  a23718:	8082                	ret

00a2371a <hal_uart_enable_interrupt>:
  a2371a:	00a0 689c 079f      	l.li	a5,0xa0689c
  a23720:	04a7851b          	addshf	a0,a5,a0,sll,2
  a23724:	4114                	lw	a3,0(a0)
  a23726:	4e9c                	lw	a5,24(a3)
  a23728:	0e05f73b          	bgeui	a1,14,a23744 <hal_uart_enable_interrupt+0x2a>
  a2372c:	00a27737          	lui	a4,0xa27
  a23730:	df470713          	addi	a4,a4,-524 # a26df4 <g_crypto_ecc_params+0x54>
  a23734:	04b7059b          	addshf	a1,a4,a1,sll,2
  a23738:	4198                	lw	a4,0(a1)
  a2373a:	8702                	jr	a4
  a2373c:	8a05                	andi	a2,a2,1
  a2373e:	9bdd                	andi	a5,a5,-9
  a23740:	06c7a79b          	orshf	a5,a5,a2,sll,3
  a23744:	ce9c                	sw	a5,24(a3)
  a23746:	8082                	ret
  a23748:	8a05                	andi	a2,a2,1
  a2374a:	9bed                	andi	a5,a5,-5
  a2374c:	04c7a79b          	orshf	a5,a5,a2,sll,2
  a23750:	bfd5                	j	a23744 <hal_uart_enable_interrupt+0x2a>
  a23752:	8a05                	andi	a2,a2,1
  a23754:	9bf9                	andi	a5,a5,-2
  a23756:	8fd1                	or	a5,a5,a2
  a23758:	b7f5                	j	a23744 <hal_uart_enable_interrupt+0x2a>
  a2375a:	8a05                	andi	a2,a2,1
  a2375c:	9bf5                	andi	a5,a5,-3
  a2375e:	02c7a79b          	orshf	a5,a5,a2,sll,1
  a23762:	b7cd                	j	a23744 <hal_uart_enable_interrupt+0x2a>

00a23764 <hal_uart_en_para_err_int>:
  a23764:	8018                	push	{ra},-16
  a23766:	00c03633          	snez	a2,a2
  a2376a:	45b5                	li	a1,13
  a2376c:	377d                	jal	ra,a2371a <hal_uart_enable_interrupt>
  a2376e:	4501                	li	a0,0
  a23770:	8014                	popret	{ra},16

00a23772 <hal_uart_en_idle_int>:
  a23772:	8018                	push	{ra},-16
  a23774:	00c03633          	snez	a2,a2
  a23778:	45b1                	li	a1,12
  a2377a:	3745                	jal	ra,a2371a <hal_uart_enable_interrupt>
  a2377c:	4501                	li	a0,0
  a2377e:	8014                	popret	{ra},16

00a23780 <hal_uart_en_rx_int>:
  a23780:	8018                	push	{ra},-16
  a23782:	00c03633          	snez	a2,a2
  a23786:	4591                	li	a1,4
  a23788:	3f49                	jal	ra,a2371a <hal_uart_enable_interrupt>
  a2378a:	4501                	li	a0,0
  a2378c:	8014                	popret	{ra},16

00a2378e <hal_uart_en_tx_int>:
  a2378e:	8018                	push	{ra},-16
  a23790:	00c03633          	snez	a2,a2
  a23794:	4589                	li	a1,2
  a23796:	3751                	jal	ra,a2371a <hal_uart_enable_interrupt>
  a23798:	4501                	li	a0,0
  a2379a:	8014                	popret	{ra},16

00a2379c <hal_uart_check_en>:
  a2379c:	00a0 689c 079f      	l.li	a5,0xa0689c
  a237a2:	04a7851b          	addshf	a0,a5,a0,sll,2
  a237a6:	4118                	lw	a4,0(a0)
  a237a8:	8985                	andi	a1,a1,1
  a237aa:	471c                	lw	a5,8(a4)
  a237ac:	fdf7f793          	andi	a5,a5,-33
  a237b0:	0ab7a79b          	orshf	a5,a5,a1,sll,5
  a237b4:	c71c                	sw	a5,8(a4)
  a237b6:	8082                	ret

00a237b8 <hal_uart_parity_en>:
  a237b8:	00a0 689c 079f      	l.li	a5,0xa0689c
  a237be:	04a7851b          	addshf	a0,a5,a0,sll,2
  a237c2:	4118                	lw	a4,0(a0)
  a237c4:	8985                	andi	a1,a1,1
  a237c6:	471c                	lw	a5,8(a4)
  a237c8:	9bbd                	andi	a5,a5,-17
  a237ca:	08b7a79b          	orshf	a5,a5,a1,sll,4
  a237ce:	c71c                	sw	a5,8(a4)
  a237d0:	8082                	ret

00a237d2 <hal_uart_set_parity>:
  a237d2:	8028                	push	{ra,s0},-16
  a237d4:	842a                	mv	s0,a0
  a237d6:	0105873b          	beqi	a1,1,a237f2 <hal_uart_set_parity+0x20>
  a237da:	c581                	beqz	a1,a237e2 <hal_uart_set_parity+0x10>
  a237dc:	020582bb          	beqi	a1,2,a237e6 <hal_uart_set_parity+0x14>
  a237e0:	8024                	popret	{ra,s0},16
  a237e2:	8020                	pop	{ra,s0},16
  a237e4:	bf65                	j	a2379c <hal_uart_check_en>
  a237e6:	4585                	li	a1,1
  a237e8:	3f55                	jal	ra,a2379c <hal_uart_check_en>
  a237ea:	4585                	li	a1,1
  a237ec:	8522                	mv	a0,s0
  a237ee:	8020                	pop	{ra,s0},16
  a237f0:	b7e1                	j	a237b8 <hal_uart_parity_en>
  a237f2:	376d                	jal	ra,a2379c <hal_uart_check_en>
  a237f4:	4581                	li	a1,0
  a237f6:	bfdd                	j	a237ec <hal_uart_set_parity+0x1a>

00a237f8 <hal_uart_v151_ctrl_set_attr>:
  a237f8:	8138                	push	{ra,s0-s1},-32
  a237fa:	224c                	lbu	a1,4(a2)
  a237fc:	84b2                	mv	s1,a2
  a237fe:	842a                	mv	s0,a0
  a23800:	35e1                	jal	ra,a236c8 <hal_uart_set_data_bits>
  a23802:	30cc                	lbu	a1,5(s1)
  a23804:	8522                	mv	a0,s0
  a23806:	3df1                	jal	ra,a236e2 <hal_uart_set_stop_bits>
  a23808:	20ec                	lbu	a1,6(s1)
  a2380a:	8522                	mv	a0,s0
  a2380c:	37d9                	jal	ra,a237d2 <hal_uart_set_parity>
  a2380e:	408c                	lw	a1,0(s1)
  a23810:	8522                	mv	a0,s0
  a23812:	c62e                	sw	a1,12(sp)
  a23814:	790000ef          	jal	ra,a23fa4 <uart_port_get_clock_value>
  a23818:	45b2                	lw	a1,12(sp)
  a2381a:	862a                	mv	a2,a0
  a2381c:	8522                	mv	a0,s0
  a2381e:	e69ff0ef          	jal	ra,a23686 <hal_uart_set_baud_rate>
  a23822:	4501                	li	a0,0
  a23824:	8134                	popret	{ra,s0-s1},32

00a23826 <hal_uart_tx_pause_en>:
  a23826:	00a0 689c 079f      	l.li	a5,0xa0689c
  a2382c:	04a7851b          	addshf	a0,a5,a0,sll,2
  a23830:	4118                	lw	a4,0(a0)
  a23832:	8985                	andi	a1,a1,1
  a23834:	4b3c                	lw	a5,80(a4)
  a23836:	9bf9                	andi	a5,a5,-2
  a23838:	8fcd                	or	a5,a5,a1
  a2383a:	cb3c                	sw	a5,80(a4)
  a2383c:	8082                	ret

00a2383e <hal_uart_v151_init>:
  a2383e:	8168                	push	{ra,s0-s4},-48
  a23840:	84b6                	mv	s1,a3
  a23842:	00251913          	slli	s2,a0,0x2
  a23846:	00a2 6e84 069f      	l.li	a3,0xa26e84
  a2384c:	8a2e                	mv	s4,a1
  a2384e:	012685b3          	add	a1,a3,s2
  a23852:	418c                	lw	a1,0(a1)
  a23854:	4294                	lw	a3,0(a3)
  a23856:	89ba                	mv	s3,a4
  a23858:	00a0 689c 071f      	l.li	a4,0xa0689c
  a2385e:	01270633          	add	a2,a4,s2
  a23862:	c20c                	sw	a1,0(a2)
  a23864:	c314                	sw	a3,0(a4)
  a23866:	20cc                	lbu	a1,4(s1)
  a23868:	00a0 6898 071f      	l.li	a4,0xa06898
  a2386e:	972a                	add	a4,a4,a0
  a23870:	c63e                	sw	a5,12(sp)
  a23872:	00070023          	sb	zero,0(a4)
  a23876:	842a                	mv	s0,a0
  a23878:	e51ff0ef          	jal	ra,a236c8 <hal_uart_set_data_bits>
  a2387c:	30cc                	lbu	a1,5(s1)
  a2387e:	8522                	mv	a0,s0
  a23880:	e63ff0ef          	jal	ra,a236e2 <hal_uart_set_stop_bits>
  a23884:	20ec                	lbu	a1,6(s1)
  a23886:	8522                	mv	a0,s0
  a23888:	37a9                	jal	ra,a237d2 <hal_uart_set_parity>
  a2388a:	4581                	li	a1,0
  a2388c:	8522                	mv	a0,s0
  a2388e:	3f61                	jal	ra,a23826 <hal_uart_tx_pause_en>
  a23890:	408c                	lw	a1,0(s1)
  a23892:	8522                	mv	a0,s0
  a23894:	c42e                	sw	a1,8(sp)
  a23896:	70e000ef          	jal	ra,a23fa4 <uart_port_get_clock_value>
  a2389a:	45a2                	lw	a1,8(sp)
  a2389c:	862a                	mv	a2,a0
  a2389e:	8522                	mv	a0,s0
  a238a0:	de7ff0ef          	jal	ra,a23686 <hal_uart_set_baud_rate>
  a238a4:	4529                	li	a0,10
  a238a6:	b41fe0ef          	jal	ra,a223e6 <uapi_tcxo_delay_us>
  a238aa:	47b2                	lw	a5,12(sp)
  a238ac:	c78d                	beqz	a5,a238d6 <hal_uart_v151_init+0x98>
  a238ae:	3390                	lbu	a2,1(a5)
  a238b0:	33ac                	lbu	a1,3(a5)
  a238b2:	8522                	mv	a0,s0
  a238b4:	d55ff0ef          	jal	ra,a23608 <hal_uart_init_fifo>
  a238b8:	00a0 688c 079f      	l.li	a5,0xa0688c
  a238be:	97ca                	add	a5,a5,s2
  a238c0:	0147a023          	sw	s4,0(a5)
  a238c4:	4585                	li	a1,1
  a238c6:	030981bb          	beqi	s3,3,a238cc <hal_uart_v151_init+0x8e>
  a238ca:	4581                	li	a1,0
  a238cc:	8522                	mv	a0,s0
  a238ce:	e31ff0ef          	jal	ra,a236fe <hal_uart_auto_flow_ctl_en>
  a238d2:	4501                	li	a0,0
  a238d4:	8164                	popret	{ra,s0-s4},48
  a238d6:	4605                	li	a2,1
  a238d8:	4585                	li	a1,1
  a238da:	bfe1                	j	a238b2 <hal_uart_v151_init+0x74>

00a238dc <hal_uart_v151_funcs_get>:
  a238dc:	00a0 2430 051f      	l.li	a0,0xa02430
  a238e2:	8082                	ret

00a238e4 <hal_watchdog_register_funcs>:
  a238e4:	c519                	beqz	a0,a238f2 <hal_watchdog_register_funcs+0xe>
  a238e6:	00a0 68b0 079f      	l.li	a5,0xa068b0
  a238ec:	c388                	sw	a0,0(a5)
  a238ee:	4501                	li	a0,0
  a238f0:	8082                	ret
  a238f2:	80000537          	lui	a0,0x80000
  a238f6:	0505                	addi	a0,a0,1 # 80000001 <__data_load__+0x7f5d8731>
  a238f8:	8082                	ret

00a238fa <hal_watchdog_unregister_funcs>:
  a238fa:	00a0 68b0 079f      	l.li	a5,0xa068b0
  a23900:	0007a023          	sw	zero,0(a5)
  a23904:	4501                	li	a0,0
  a23906:	8082                	ret

00a23908 <hal_watchdog_get_funcs>:
  a23908:	00a0 68b0 079f      	l.li	a5,0xa068b0
  a2390e:	4388                	lw	a0,0(a5)
  a23910:	8082                	ret

00a23912 <hal_watchdog_regs_init>:
  a23912:	00a027b7          	lui	a5,0xa02
  a23916:	4787a783          	lw	a5,1144(a5) # a02478 <g_watchdog_base_addr>
  a2391a:	c799                	beqz	a5,a23928 <hal_watchdog_regs_init+0x16>
  a2391c:	00a0 68b4 071f      	l.li	a4,0xa068b4
  a23922:	c31c                	sw	a5,0(a4)
  a23924:	4501                	li	a0,0
  a23926:	8082                	ret
  a23928:	8000 1200 051f      	l.li	a0,0x80001200
  a2392e:	8082                	ret

00a23930 <hal_watchdog_regs_deinit>:
  a23930:	00a0 68b4 079f      	l.li	a5,0xa068b4
  a23936:	0007a023          	sw	zero,0(a5)
  a2393a:	8082                	ret

00a2393c <hal_watchdog_v151_kick>:
  a2393c:	00a077b7          	lui	a5,0xa07
  a23940:	8b47a783          	lw	a5,-1868(a5) # a068b4 <g_watchdog_regs>
  a23944:	5a5a 5a5a 071f      	l.li	a4,0x5a5a5a5a
  a2394a:	c798                	sw	a4,8(a5)
  a2394c:	8082                	ret

00a2394e <hal_watchdog_v151_get_attr>:
  a2394e:	00a0 68bc 079f      	l.li	a5,0xa068bc
  a23954:	4388                	lw	a0,0(a5)
  a23956:	8082                	ret

00a23958 <hal_register_watchdog_v151_callback>:
  a23958:	00a0 68b8 079f      	l.li	a5,0xa068b8
  a2395e:	c388                	sw	a0,0(a5)
  a23960:	8082                	ret

00a23962 <hal_watchdog_v151_deinit>:
  a23962:	b7f9                	j	a23930 <hal_watchdog_regs_deinit>

00a23964 <hal_watchdog_v151_init>:
  a23964:	b77d                	j	a23912 <hal_watchdog_regs_init>

00a23966 <hal_watchdog_v151_get_left_time>:
  a23966:	8038                	push	{ra,s0-s1},-16
  a23968:	00a077b7          	lui	a5,0xa07
  a2396c:	8b47a683          	lw	a3,-1868(a5) # a068b4 <g_watchdog_regs>
  a23970:	7d100493          	li	s1,2001
  a23974:	843e                	mv	s0,a5
  a23976:	5698                	lw	a4,40(a3)
  a23978:	00176713          	ori	a4,a4,1
  a2397c:	d698                	sw	a4,40(a3)
  a2397e:	8b442703          	lw	a4,-1868(s0)
  a23982:	571c                	lw	a5,40(a4)
  a23984:	8385                	srli	a5,a5,0x1
  a23986:	8b85                	andi	a5,a5,1
  a23988:	cf99                	beqz	a5,a239a6 <hal_watchdog_v151_get_left_time+0x40>
  a2398a:	4b40                	lw	s0,20(a4)
  a2398c:	704000ef          	jal	ra,a24090 <watchdog_port_get_clock>
  a23990:	3e800793          	li	a5,1000
  a23994:	862a                	mv	a2,a0
  a23996:	02f435b3          	mulhu	a1,s0,a5
  a2399a:	4681                	li	a3,0
  a2399c:	02f40533          	mul	a0,s0,a5
  a239a0:	c9dfc0ef          	jal	ra,a2063c <__udivdi3>
  a239a4:	8034                	popret	{ra,s0-s1},16
  a239a6:	14fd                	addi	s1,s1,-1
  a239a8:	c489                	beqz	s1,a239b2 <hal_watchdog_v151_get_left_time+0x4c>
  a239aa:	4505                	li	a0,1
  a239ac:	a3bfe0ef          	jal	ra,a223e6 <uapi_tcxo_delay_us>
  a239b0:	b7f9                	j	a2397e <hal_watchdog_v151_get_left_time+0x18>
  a239b2:	4501                	li	a0,0
  a239b4:	bfc5                	j	a239a4 <hal_watchdog_v151_get_left_time+0x3e>

00a239b6 <hal_watchdog_v151_clear_interrupt>:
  a239b6:	00a077b7          	lui	a5,0xa07
  a239ba:	8b47a703          	lw	a4,-1868(a5) # a068b4 <g_watchdog_regs>
  a239be:	475c                	lw	a5,12(a4)
  a239c0:	0017e793          	ori	a5,a5,1
  a239c4:	c75c                	sw	a5,12(a4)
  a239c6:	8082                	ret

00a239c8 <hal_watchdog_v151_disable>:
  a239c8:	8018                	push	{ra},-16
  a239ca:	37f5                	jal	ra,a239b6 <hal_watchdog_v151_clear_interrupt>
  a239cc:	00a077b7          	lui	a5,0xa07
  a239d0:	8b47a703          	lw	a4,-1868(a5) # a068b4 <g_watchdog_regs>
  a239d4:	4b1c                	lw	a5,16(a4)
  a239d6:	9bf9                	andi	a5,a5,-2
  a239d8:	cb1c                	sw	a5,16(a4)
  a239da:	8014                	popret	{ra},16

00a239dc <hal_watchdog_v151_set_attr>:
  a239dc:	8048                	push	{ra,s0-s2},-16
  a239de:	84aa                	mv	s1,a0
  a239e0:	6b0000ef          	jal	ra,a24090 <watchdog_port_get_clock>
  a239e4:	e489                	bnez	s1,a239ee <hal_watchdog_v151_set_attr+0x12>
  a239e6:	80000537          	lui	a0,0x80000
  a239ea:	0505                	addi	a0,a0,1 # 80000001 <__data_load__+0x7f5d8731>
  a239ec:	8044                	popret	{ra,s0-s2},16
  a239ee:	02950433          	mul	s0,a0,s1
  a239f2:	02945933          	divu	s2,s0,s1
  a239f6:	69a000ef          	jal	ra,a24090 <watchdog_port_get_clock>
  a239fa:	fea916e3          	bne	s2,a0,a239e6 <hal_watchdog_v151_set_attr+0xa>
  a239fe:	fff46a3b          	bltui	s0,255,a239e6 <hal_watchdog_v151_set_attr+0xa>
  a23a02:	00a0 68bc 079f      	l.li	a5,0xa068bc
  a23a08:	00a07937          	lui	s2,0xa07
  a23a0c:	c384                	sw	s1,0(a5)
  a23a0e:	8b492783          	lw	a5,-1868(s2) # a068b4 <g_watchdog_regs>
  a23a12:	5a5a 5a5a 049f      	l.li	s1,0x5a5a5a5a
  a23a18:	f0047413          	andi	s0,s0,-256
  a23a1c:	c384                	sw	s1,0(a5)
  a23a1e:	376d                	jal	ra,a239c8 <hal_watchdog_v151_disable>
  a23a20:	8b492783          	lw	a5,-1868(s2)
  a23a24:	4b98                	lw	a4,16(a5)
  a23a26:	00476713          	ori	a4,a4,4
  a23a2a:	cb98                	sw	a4,16(a5)
  a23a2c:	4b98                	lw	a4,16(a5)
  a23a2e:	fbf77713          	andi	a4,a4,-65
  a23a32:	cb98                	sw	a4,16(a5)
  a23a34:	4b98                	lw	a4,16(a5)
  a23a36:	03876713          	ori	a4,a4,56
  a23a3a:	cb98                	sw	a4,16(a5)
  a23a3c:	43c8                	lw	a0,4(a5)
  a23a3e:	0ff57513          	andi	a0,a0,255
  a23a42:	8c49                	or	s0,s0,a0
  a23a44:	c3c0                	sw	s0,4(a5)
  a23a46:	c784                	sw	s1,8(a5)
  a23a48:	4501                	li	a0,0
  a23a4a:	b74d                	j	a239ec <hal_watchdog_v151_set_attr+0x10>

00a23a4c <hal_watchdog_v151_enable>:
  a23a4c:	8128                	push	{ra,s0},-32
  a23a4e:	c62a                	sw	a0,12(sp)
  a23a50:	3fa5                	jal	ra,a239c8 <hal_watchdog_v151_disable>
  a23a52:	4532                	lw	a0,12(sp)
  a23a54:	00a07437          	lui	s0,0xa07
  a23a58:	e10d                	bnez	a0,a23a7a <hal_watchdog_v151_enable+0x2e>
  a23a5a:	8b442703          	lw	a4,-1868(s0) # a068b4 <g_watchdog_regs>
  a23a5e:	4b1c                	lw	a5,16(a4)
  a23a60:	f7f7f793          	andi	a5,a5,-129
  a23a64:	cb1c                	sw	a5,16(a4)
  a23a66:	3f81                	jal	ra,a239b6 <hal_watchdog_v151_clear_interrupt>
  a23a68:	8b442703          	lw	a4,-1868(s0)
  a23a6c:	4b1c                	lw	a5,16(a4)
  a23a6e:	0017e793          	ori	a5,a5,1
  a23a72:	cb1c                	sw	a5,16(a4)
  a23a74:	8120                	pop	{ra,s0},32
  a23a76:	ec7ff06f          	j	a2393c <hal_watchdog_v151_kick>
  a23a7a:	01f51b3b          	bnei	a0,1,a23a66 <hal_watchdog_v151_enable+0x1a>
  a23a7e:	8b442703          	lw	a4,-1868(s0)
  a23a82:	4b1c                	lw	a5,16(a4)
  a23a84:	0807e793          	ori	a5,a5,128
  a23a88:	bff1                	j	a23a64 <hal_watchdog_v151_enable+0x18>

00a23a8a <hal_watchdog_v151_funcs_get>:
  a23a8a:	00a0 2448 051f      	l.li	a0,0xa02448
  a23a90:	8082                	ret

00a23a92 <hal_sfc_regs_init>:
  a23a92:	8058                	push	{ra,s0-s3},-32
  a23a94:	2525                	jal	ra,a240bc <sfc_port_get_sfc_global_conf_base_addr>
  a23a96:	00a0 68d0 099f      	l.li	s3,0xa068d0
  a23a9c:	00a9a023          	sw	a0,0(s3)
  a23aa0:	00a0 68c4 091f      	l.li	s2,0xa068c4
  a23aa6:	2d39                	jal	ra,a240c4 <sfc_port_get_sfc_bus_regs_base_addr>
  a23aa8:	00a92023          	sw	a0,0(s2)
  a23aac:	00a0 68c0 049f      	l.li	s1,0xa068c0
  a23ab2:	2d29                	jal	ra,a240cc <sfc_port_get_sfc_bus_dma_regs_base_addr>
  a23ab4:	c088                	sw	a0,0(s1)
  a23ab6:	00a0 68cc 041f      	l.li	s0,0xa068cc
  a23abc:	2d21                	jal	ra,a240d4 <sfc_port_get_sfc_cmd_regs_base_addr>
  a23abe:	c008                	sw	a0,0(s0)
  a23ac0:	2d31                	jal	ra,a240dc <sfc_port_get_sfc_cmd_databuf_base_addr>
  a23ac2:	00a0 68c8 079f      	l.li	a5,0xa068c8
  a23ac8:	c388                	sw	a0,0(a5)
  a23aca:	0009a783          	lw	a5,0(s3)
  a23ace:	cb99                	beqz	a5,a23ae4 <hal_sfc_regs_init+0x52>
  a23ad0:	00092783          	lw	a5,0(s2)
  a23ad4:	cb81                	beqz	a5,a23ae4 <hal_sfc_regs_init+0x52>
  a23ad6:	409c                	lw	a5,0(s1)
  a23ad8:	c791                	beqz	a5,a23ae4 <hal_sfc_regs_init+0x52>
  a23ada:	401c                	lw	a5,0(s0)
  a23adc:	c781                	beqz	a5,a23ae4 <hal_sfc_regs_init+0x52>
  a23ade:	c119                	beqz	a0,a23ae4 <hal_sfc_regs_init+0x52>
  a23ae0:	4501                	li	a0,0
  a23ae2:	8054                	popret	{ra,s0-s3},32
  a23ae4:	8000 1343 051f      	l.li	a0,0x80001343
  a23aea:	bfe5                	j	a23ae2 <hal_sfc_regs_init+0x50>

00a23aec <hal_sfc_regs_set_cmd_addr>:
  a23aec:	00a077b7          	lui	a5,0xa07
  a23af0:	8cc7a683          	lw	a3,-1844(a5) # a068cc <g_sfc_cmd_regs>
  a23af4:	3fff ffff 071f      	l.li	a4,0x3fffffff
  a23afa:	8d79                	and	a0,a0,a4
  a23afc:	46dc                	lw	a5,12(a3)
  a23afe:	c0000737          	lui	a4,0xc0000
  a23b02:	8ff9                	and	a5,a5,a4
  a23b04:	8fc9                	or	a5,a5,a0
  a23b06:	c6dc                	sw	a5,12(a3)
  a23b08:	8082                	ret

00a23b0a <hal_sfc_regs_wait_ready.constprop.3>:
  a23b0a:	8158                	push	{ra,s0-s3},-48
  a23b0c:	23cd                	jal	ra,a240ee <sfc_port_get_delay_times>
  a23b0e:	84aa                	mv	s1,a0
  a23b10:	2bd1                	jal	ra,a240e4 <sfc_port_get_delay_once_time>
  a23b12:	4792                	lw	a5,4(sp)
  a23b14:	ffff c7ff 071f      	l.li	a4,0xffffc7ff
  a23b1a:	892a                	mv	s2,a0
  a23b1c:	8077f793          	andi	a5,a5,-2041
  a23b20:	0287e793          	ori	a5,a5,40
  a23b24:	8ff9                	and	a5,a5,a4
  a23b26:	c23e                	sw	a5,4(sp)
  a23b28:	4785                	li	a5,1
  a23b2a:	c43e                	sw	a5,8(sp)
  a23b2c:	c602                	sw	zero,12(sp)
  a23b2e:	4401                	li	s0,0
  a23b30:	00a079b7          	lui	s3,0xa07
  a23b34:	0048                	addi	a0,sp,4
  a23b36:	26ad                	jal	ra,a23ea0 <hal_sfc_regs_set_opt>
  a23b38:	4601                	li	a2,0
  a23b3a:	4585                	li	a1,1
  a23b3c:	4505                	li	a0,1
  a23b3e:	2e69                	jal	ra,a23ed8 <hal_sfc_regs_set_opt_attr>
  a23b40:	26d9                	jal	ra,a23f06 <hal_sfc_regs_wait_config>
  a23b42:	8c89a783          	lw	a5,-1848(s3) # a068c8 <g_sfc_cmd_databuf>
  a23b46:	439c                	lw	a5,0(a5)
  a23b48:	8b85                	andi	a5,a5,1
  a23b4a:	cf91                	beqz	a5,a23b66 <hal_sfc_regs_wait_ready.constprop.3+0x5c>
  a23b4c:	854a                	mv	a0,s2
  a23b4e:	899fe0ef          	jal	ra,a223e6 <uapi_tcxo_delay_us>
  a23b52:	00140793          	addi	a5,s0,1
  a23b56:	00946663          	bltu	s0,s1,a23b62 <hal_sfc_regs_wait_ready.constprop.3+0x58>
  a23b5a:	8000 1344 051f      	l.li	a0,0x80001344
  a23b60:	8154                	popret	{ra,s0-s3},48
  a23b62:	843e                	mv	s0,a5
  a23b64:	bfc1                	j	a23b34 <hal_sfc_regs_wait_ready.constprop.3+0x2a>
  a23b66:	4501                	li	a0,0
  a23b68:	bfe5                	j	a23b60 <hal_sfc_regs_wait_ready.constprop.3+0x56>

00a23b6a <hal_sfc_execute_type_cmd>:
  a23b6a:	8148                	push	{ra,s0-s2},-32
  a23b6c:	219c                	lbu	a5,0(a1)
  a23b6e:	842a                	mv	s0,a0
  a23b70:	892e                	mv	s2,a1
  a23b72:	078e                	slli	a5,a5,0x3
  a23b74:	0017e793          	ori	a5,a5,1
  a23b78:	c23e                	sw	a5,4(sp)
  a23b7a:	fff50793          	addi	a5,a0,-1
  a23b7e:	c43e                	sw	a5,8(sp)
  a23b80:	c602                	sw	zero,12(sp)
  a23b82:	3761                	jal	ra,a23b0a <hal_sfc_regs_wait_ready.constprop.3>
  a23b84:	84aa                	mv	s1,a0
  a23b86:	e50d                	bnez	a0,a23bb0 <hal_sfc_execute_type_cmd+0x46>
  a23b88:	0048                	addi	a0,sp,4
  a23b8a:	2e19                	jal	ra,a23ea0 <hal_sfc_regs_set_opt>
  a23b8c:	4785                	li	a5,1
  a23b8e:	c002                	sw	zero,0(sp)
  a23b90:	0287e263          	bltu	a5,s0,a23bb4 <hal_sfc_execute_type_cmd+0x4a>
  a23b94:	00a077b7          	lui	a5,0xa07
  a23b98:	8c87a783          	lw	a5,-1848(a5) # a068c8 <g_sfc_cmd_databuf>
  a23b9c:	4702                	lw	a4,0(sp)
  a23b9e:	00243593          	sltiu	a1,s0,2
  a23ba2:	4601                	li	a2,0
  a23ba4:	c398                	sw	a4,0(a5)
  a23ba6:	0015c593          	xori	a1,a1,1
  a23baa:	4501                	li	a0,0
  a23bac:	2635                	jal	ra,a23ed8 <hal_sfc_regs_set_opt_attr>
  a23bae:	2ea1                	jal	ra,a23f06 <hal_sfc_regs_wait_config>
  a23bb0:	8526                	mv	a0,s1
  a23bb2:	8144                	popret	{ra,s0-s2},32
  a23bb4:	00f906b3          	add	a3,s2,a5
  a23bb8:	2294                	lbu	a3,0(a3)
  a23bba:	00f10733          	add	a4,sp,a5
  a23bbe:	0785                	addi	a5,a5,1
  a23bc0:	fed70fa3          	sb	a3,-1(a4) # bfffffff <__data_load__+0xbf5d872f>
  a23bc4:	b7f1                	j	a23b90 <hal_sfc_execute_type_cmd+0x26>

00a23bc6 <hal_sfc_write_enable>:
  a23bc6:	8118                	push	{ra},-32
  a23bc8:	f43ff0ef          	jal	ra,a23b0a <hal_sfc_regs_wait_ready.constprop.3>
  a23bcc:	4799                	li	a5,6
  a23bce:	006c                	addi	a1,sp,12
  a23bd0:	4505                	li	a0,1
  a23bd2:	00f10623          	sb	a5,12(sp)
  a23bd6:	3f51                	jal	ra,a23b6a <hal_sfc_execute_type_cmd>
  a23bd8:	e119                	bnez	a0,a23bde <hal_sfc_write_enable+0x18>
  a23bda:	f31ff0ef          	jal	ra,a23b0a <hal_sfc_regs_wait_ready.constprop.3>
  a23bde:	8114                	popret	{ra},32

00a23be0 <hal_sfc_reg_write_once>:
  a23be0:	8648                	push	{ra,s0-s2},-112
  a23be2:	c636                	sw	a3,12(sp)
  a23be4:	892a                	mv	s2,a0
  a23be6:	84ae                	mv	s1,a1
  a23be8:	8432                	mv	s0,a2
  a23bea:	3ff1                	jal	ra,a23bc6 <hal_sfc_write_enable>
  a23bec:	87aa                	mv	a5,a0
  a23bee:	46b2                	lw	a3,12(sp)
  a23bf0:	e939                	bnez	a0,a23c46 <hal_sfc_reg_write_once+0x66>
  a23bf2:	ca36                	sw	a3,20(sp)
  a23bf4:	0848                	addi	a0,sp,20
  a23bf6:	82b9                	srli	a3,a3,0xe
  a23bf8:	ce36                	sw	a3,28(sp)
  a23bfa:	cc22                	sw	s0,24(sp)
  a23bfc:	2455                	jal	ra,a23ea0 <hal_sfc_regs_set_opt>
  a23bfe:	854a                	mv	a0,s2
  a23c00:	eedff0ef          	jal	ra,a23aec <hal_sfc_regs_set_cmd_addr>
  a23c04:	86a2                	mv	a3,s0
  a23c06:	8626                	mv	a2,s1
  a23c08:	04000593          	li	a1,64
  a23c0c:	1008                	addi	a0,sp,32
  a23c0e:	061010ef          	jal	ra,a2546e <memcpy_s>
  a23c12:	57fd                	li	a5,-1
  a23c14:	e90d                	bnez	a0,a23c46 <hal_sfc_reg_write_once+0x66>
  a23c16:	00347613          	andi	a2,s0,3
  a23c1a:	00c03633          	snez	a2,a2
  a23c1e:	4486061b          	addshf	a2,a2,s0,srl,2
  a23c22:	9e21                	uxth	a2
  a23c24:	101c                	addi	a5,sp,32
  a23c26:	4701                	li	a4,0
  a23c28:	00a075b7          	lui	a1,0xa07
  a23c2c:	01071693          	slli	a3,a4,0x10
  a23c30:	82c1                	srli	a3,a3,0x10
  a23c32:	00c6ec63          	bltu	a3,a2,a23c4a <hal_sfc_reg_write_once+0x6a>
  a23c36:	4605                	li	a2,1
  a23c38:	4585                	li	a1,1
  a23c3a:	4501                	li	a0,0
  a23c3c:	2c71                	jal	ra,a23ed8 <hal_sfc_regs_set_opt_attr>
  a23c3e:	24e1                	jal	ra,a23f06 <hal_sfc_regs_wait_config>
  a23c40:	ecbff0ef          	jal	ra,a23b0a <hal_sfc_regs_wait_ready.constprop.3>
  a23c44:	87aa                	mv	a5,a0
  a23c46:	853e                	mv	a0,a5
  a23c48:	8644                	popret	{ra,s0-s2},112
  a23c4a:	8c85a683          	lw	a3,-1848(a1) # a068c8 <g_sfc_cmd_databuf>
  a23c4e:	4388                	lw	a0,0(a5)
  a23c50:	0791                	addi	a5,a5,4
  a23c52:	04e6869b          	addshf	a3,a3,a4,sll,2
  a23c56:	c288                	sw	a0,0(a3)
  a23c58:	0705                	addi	a4,a4,1
  a23c5a:	bfc9                	j	a23c2c <hal_sfc_reg_write_once+0x4c>

00a23c5c <hal_sfc_get_flash_id>:
  a23c5c:	8128                	push	{ra,s0},-32
  a23c5e:	842a                	mv	s0,a0
  a23c60:	e33ff0ef          	jal	ra,a23a92 <hal_sfc_regs_init>
  a23c64:	ea7ff0ef          	jal	ra,a23b0a <hal_sfc_regs_wait_ready.constprop.3>
  a23c68:	e91d                	bnez	a0,a23c9e <hal_sfc_get_flash_id+0x42>
  a23c6a:	4631                	li	a2,12
  a23c6c:	00a2 5e38 059f      	l.li	a1,0xa25e38
  a23c72:	0048                	addi	a0,sp,4
  a23c74:	e7ffc0ef          	jal	ra,a20af2 <memcpy>
  a23c78:	0048                	addi	a0,sp,4
  a23c7a:	241d                	jal	ra,a23ea0 <hal_sfc_regs_set_opt>
  a23c7c:	4601                	li	a2,0
  a23c7e:	4585                	li	a1,1
  a23c80:	4505                	li	a0,1
  a23c82:	2c99                	jal	ra,a23ed8 <hal_sfc_regs_set_opt_attr>
  a23c84:	2449                	jal	ra,a23f06 <hal_sfc_regs_wait_config>
  a23c86:	00a077b7          	lui	a5,0xa07
  a23c8a:	8c87a783          	lw	a5,-1848(a5) # a068c8 <g_sfc_cmd_databuf>
  a23c8e:	00ff ffff 071f      	l.li	a4,0xffffff
  a23c94:	439c                	lw	a5,0(a5)
  a23c96:	8ff9                	and	a5,a5,a4
  a23c98:	c01c                	sw	a5,0(s0)
  a23c9a:	e71ff0ef          	jal	ra,a23b0a <hal_sfc_regs_wait_ready.constprop.3>
  a23c9e:	8124                	popret	{ra,s0},32

00a23ca0 <hal_sfc_init>:
  a23ca0:	67c1                	lui	a5,0x10
  a23ca2:	0cf66c63          	bltu	a2,a5,a23d7a <hal_sfc_init+0xda>
  a23ca6:	8198                	push	{ra,s0-s7},-64
  a23ca8:	4940                	lw	s0,20(a0)
  a23caa:	84b2                	mv	s1,a2
  a23cac:	89ae                	mv	s3,a1
  a23cae:	892a                	mv	s2,a0
